(lp0
(dp1
I1
(dp2
S'1'
p3
cpandas.core.indexes.base
_new_Index
p4
(cpandas.core.indexes.base
Index
p5
(dp6
S'data'
p7
cnumpy.core.multiarray
_reconstruct
p8
(cnumpy
ndarray
p9
(I0
tp10
S'b'
p11
tp12
Rp13
(I1
(L120L
tp14
cnumpy
dtype
p15
(S'O8'
p16
I0
I1
tp17
Rp18
(I3
S'|'
p19
NNNI-1
I-1
I63
tp20
bI00
(lp21
S'IDD2'
p22
aS'IDD4'
p23
aS'IDD5'
p24
aS'IDD6'
p25
aS'IDD11'
p26
aS'IDD12'
p27
aS'IDD13'
p28
aS'IDD15'
p29
aS'IDD16'
p30
aS'IDD19'
p31
aS'IDD20'
p32
aS'IDD22'
p33
aS'IDD23'
p34
aS'IDD24'
p35
aS'IDD25'
p36
aS'IDD26'
p37
aS'IDD27'
p38
aS'IDD28'
p39
aS'IDD30'
p40
aS'IDD32'
p41
aS'IDD33'
p42
aS'IDD39'
p43
aS'IDD40'
p44
aS'IDD42'
p45
aS'IDD43'
p46
aS'IDD44'
p47
aS'IDD46'
p48
aS'IDD52'
p49
aS'IDD53'
p50
aS'IDD54'
p51
aS'IDD110'
p52
aS'IDD112'
p53
aS'IDD114'
p54
aS'IDD115'
p55
aS'IDD116'
p56
aS'IDD119'
p57
aS'IDD124'
p58
aS'IDD125'
p59
aS'IDD126'
p60
aS'IDD128'
p61
aS'IDD129'
p62
aS'IDD133'
p63
aS'IDD135'
p64
aS'IDD136'
p65
aS'IDD137'
p66
aS'IDD139'
p67
aS'IDD140'
p68
aS'IDD142'
p69
aS'IDD144'
p70
aS'IDD150'
p71
aS'IDD151'
p72
aS'IDD152'
p73
aS'IDD153'
p74
aS'IDD154'
p75
aS'IDD155'
p76
aS'IDD156'
p77
aS'IDD158'
p78
aS'IDD159'
p79
aS'IDD163'
p80
aS'IDD165'
p81
aS'IDD166'
p82
aS'IDD167'
p83
aS'IDD168'
p84
aS'IDD169'
p85
aS'IDD171'
p86
aS'IDD174'
p87
aS'IDD175'
p88
aS'IDD180'
p89
aS'IDD181'
p90
aS'IDD184'
p91
aS'IDD185'
p92
aS'IDD186'
p93
aS'IDD188'
p94
aS'IDD189'
p95
aS'IDD191'
p96
aS'IDD193'
p97
aS'IDD195'
p98
aS'IDD196'
p99
aS'IDD197'
p100
aS'IDD198'
p101
aS'IDD199'
p102
aS'IDD201'
p103
aS'IDD206'
p104
aS'IDD207'
p105
aS'IDD208'
p106
aS'IDD210'
p107
aS'IDD212'
p108
aS'IDD213'
p109
aS'IDD215'
p110
aS'IDD216'
p111
aS'IDD217'
p112
aS'IDD218'
p113
aS'IDD219'
p114
aS'IDD220'
p115
aS'IDD223'
p116
aS'IDD225'
p117
aS'IDD226'
p118
aS'IDD229'
p119
aS'IDD230'
p120
aS'IDD233'
p121
aS'IDD235'
p122
aS'IDD237'
p123
aS'IDD239'
p124
aS'IDD240'
p125
aS'IDD242'
p126
aS'IDD243'
p127
aS'IDD245'
p128
aS'IDD248'
p129
aS'IDD252'
p130
aS'IDD254'
p131
aS'IDD255'
p132
aS'IDD256'
p133
aS'IDD257'
p134
aS'IDD260'
p135
aS'IDD261'
p136
aS'IDD264'
p137
aS'IDD266'
p138
aS'IDD267'
p139
aS'IDD268'
p140
aS'IDD269'
p141
atp142
bsS'name'
p143
S'Id'
p144
stp145
Rp146
sS'0'
p147
g4
(g5
(dp148
g7
g8
(g9
(I0
tp149
g11
tp150
Rp151
(I1
(L120L
tp152
g18
I00
(lp153
S'IDD55'
p154
aS'IDD56'
p155
aS'IDD58'
p156
aS'IDD61'
p157
aS'IDD63'
p158
aS'IDD64'
p159
aS'IDD65'
p160
aS'IDD67'
p161
aS'IDD69'
p162
aS'IDD72'
p163
aS'IDD73'
p164
aS'IDD74'
p165
aS'IDD75'
p166
aS'IDD77'
p167
aS'IDD78'
p168
aS'IDD79'
p169
aS'IDD80'
p170
aS'IDD84'
p171
aS'IDD85'
p172
aS'IDD86'
p173
aS'IDD87'
p174
aS'IDD88'
p175
aS'IDD89'
p176
aS'IDD91'
p177
aS'IDD97'
p178
aS'IDD99'
p179
aS'IDD100'
p180
aS'IDD101'
p181
aS'IDD103'
p182
aS'IDD107'
p183
ag52
ag53
ag54
ag55
ag56
ag57
ag58
ag59
ag60
ag61
ag62
ag63
ag64
ag65
ag66
ag67
ag68
ag69
ag70
ag71
ag72
ag73
ag74
ag75
ag76
ag77
ag78
ag79
ag80
ag81
ag82
ag83
ag84
ag85
ag86
ag87
ag88
ag89
ag90
ag91
ag92
ag93
ag94
ag95
ag96
ag97
ag98
ag99
ag100
ag101
ag102
ag103
ag104
ag105
ag106
ag107
ag108
ag109
ag110
ag111
ag112
ag113
ag114
ag115
ag116
ag117
ag118
ag119
ag120
ag121
ag122
ag123
ag124
ag125
ag126
ag127
ag128
ag129
ag130
ag131
ag132
ag133
ag134
ag135
ag136
ag137
ag138
ag139
ag140
ag141
atp184
bsg143
g144
stp185
Rp186
sS'3'
p187
g4
(g5
(dp188
g7
g8
(g9
(I0
tp189
g11
tp190
Rp191
(I1
(L120L
tp192
g18
I00
(lp193
g22
ag23
ag24
ag25
ag26
ag27
ag28
ag29
ag30
ag31
ag32
ag33
ag34
ag35
ag36
ag37
ag38
ag39
ag40
ag41
ag42
ag43
ag44
ag45
ag46
ag47
ag48
ag49
ag50
ag51
ag154
ag155
ag156
ag157
ag158
ag159
ag160
ag161
ag162
ag163
ag164
ag165
ag166
ag167
ag168
ag169
ag170
ag171
ag172
ag173
ag174
ag175
ag176
ag177
ag178
ag179
ag180
ag181
ag182
ag183
ag52
ag53
ag54
ag55
ag56
ag57
ag58
ag59
ag60
ag61
ag62
ag63
ag64
ag65
ag66
ag67
ag68
ag69
ag70
ag71
ag72
ag73
ag74
ag75
ag76
ag77
ag78
ag79
ag80
ag81
ag112
ag113
ag114
ag115
ag116
ag117
ag118
ag119
ag120
ag121
ag122
ag123
ag124
ag125
ag126
ag127
ag128
ag129
ag130
ag131
ag132
ag133
ag134
ag135
ag136
ag137
ag138
ag139
ag140
ag141
atp194
bsg143
g144
stp195
Rp196
sS'2'
p197
g4
(g5
(dp198
g7
g8
(g9
(I0
tp199
g11
tp200
Rp201
(I1
(L120L
tp202
g18
I00
(lp203
g22
ag23
ag24
ag25
ag26
ag27
ag28
ag29
ag30
ag31
ag32
ag33
ag34
ag35
ag36
ag37
ag38
ag39
ag40
ag41
ag42
ag43
ag44
ag45
ag46
ag47
ag48
ag49
ag50
ag51
ag154
ag155
ag156
ag157
ag158
ag159
ag160
ag161
ag162
ag163
ag164
ag165
ag166
ag167
ag168
ag169
ag170
ag171
ag172
ag173
ag174
ag175
ag176
ag177
ag178
ag179
ag180
ag181
ag182
ag183
ag82
ag83
ag84
ag85
ag86
ag87
ag88
ag89
ag90
ag91
ag92
ag93
ag94
ag95
ag96
ag97
ag98
ag99
ag100
ag101
ag102
ag103
ag104
ag105
ag106
ag107
ag108
ag109
ag110
ag111
ag112
ag113
ag114
ag115
ag116
ag117
ag118
ag119
ag120
ag121
ag122
ag123
ag124
ag125
ag126
ag127
ag128
ag129
ag130
ag131
ag132
ag133
ag134
ag135
ag136
ag137
ag138
ag139
ag140
ag141
atp204
bsg143
g144
stp205
Rp206
sS'4'
p207
g4
(g5
(dp208
g7
g8
(g9
(I0
tp209
g11
tp210
Rp211
(I1
(L120L
tp212
g18
I00
(lp213
g22
ag23
ag24
ag25
ag26
ag27
ag28
ag29
ag30
ag31
ag32
ag33
ag34
ag35
ag36
ag37
ag38
ag39
ag40
ag41
ag42
ag43
ag44
ag45
ag46
ag47
ag48
ag49
ag50
ag51
ag154
ag155
ag156
ag157
ag158
ag159
ag160
ag161
ag162
ag163
ag164
ag165
ag166
ag167
ag168
ag169
ag170
ag171
ag172
ag173
ag174
ag175
ag176
ag177
ag178
ag179
ag180
ag181
ag182
ag183
ag52
ag53
ag54
ag55
ag56
ag57
ag58
ag59
ag60
ag61
ag62
ag63
ag64
ag65
ag66
ag67
ag68
ag69
ag70
ag71
ag72
ag73
ag74
ag75
ag76
ag77
ag78
ag79
ag80
ag81
ag82
ag83
ag84
ag85
ag86
ag87
ag88
ag89
ag90
ag91
ag92
ag93
ag94
ag95
ag96
ag97
ag98
ag99
ag100
ag101
ag102
ag103
ag104
ag105
ag106
ag107
ag108
ag109
ag110
ag111
atp214
bsg143
g144
stp215
Rp216
ssI2
(dp217
g3
g4
(g5
(dp218
g7
g8
(g9
(I0
tp219
g11
tp220
Rp221
(I1
(L96L
tp222
g18
I00
(lp223
S'IDD1'
p224
aS'IDD3'
p225
aS'IDD7'
p226
aS'IDD8'
p227
aS'IDD9'
p228
aS'IDD10'
p229
aS'IDD14'
p230
aS'IDD17'
p231
aS'IDD18'
p232
aS'IDD21'
p233
aS'IDD29'
p234
aS'IDD31'
p235
aS'IDD34'
p236
aS'IDD35'
p237
aS'IDD36'
p238
aS'IDD37'
p239
aS'IDD38'
p240
aS'IDD41'
p241
aS'IDD45'
p242
aS'IDD47'
p243
aS'IDD48'
p244
aS'IDD49'
p245
aS'IDD50'
p246
aS'IDD51'
p247
aS'IDD109'
p248
aS'IDD111'
p249
aS'IDD113'
p250
aS'IDD117'
p251
aS'IDD118'
p252
aS'IDD120'
p253
aS'IDD121'
p254
aS'IDD122'
p255
aS'IDD123'
p256
aS'IDD127'
p257
aS'IDD130'
p258
aS'IDD131'
p259
aS'IDD132'
p260
aS'IDD134'
p261
aS'IDD138'
p262
aS'IDD141'
p263
aS'IDD143'
p264
aS'IDD145'
p265
aS'IDD146'
p266
aS'IDD147'
p267
aS'IDD148'
p268
aS'IDD149'
p269
aS'IDD157'
p270
aS'IDD160'
p271
aS'IDD161'
p272
aS'IDD162'
p273
aS'IDD164'
p274
aS'IDD170'
p275
aS'IDD172'
p276
aS'IDD173'
p277
aS'IDD176'
p278
aS'IDD177'
p279
aS'IDD178'
p280
aS'IDD179'
p281
aS'IDD182'
p282
aS'IDD183'
p283
aS'IDD187'
p284
aS'IDD190'
p285
aS'IDD192'
p286
aS'IDD194'
p287
aS'IDD200'
p288
aS'IDD202'
p289
aS'IDD203'
p290
aS'IDD204'
p291
aS'IDD205'
p292
aS'IDD209'
p293
aS'IDD211'
p294
aS'IDD214'
p295
aS'IDD221'
p296
aS'IDD222'
p297
aS'IDD224'
p298
aS'IDD227'
p299
aS'IDD228'
p300
aS'IDD231'
p301
aS'IDD232'
p302
aS'IDD234'
p303
aS'IDD236'
p304
aS'IDD238'
p305
aS'IDD241'
p306
aS'IDD244'
p307
aS'IDD246'
p308
aS'IDD247'
p309
aS'IDD249'
p310
aS'IDD250'
p311
aS'IDD251'
p312
aS'IDD253'
p313
aS'IDD258'
p314
aS'IDD259'
p315
aS'IDD262'
p316
aS'IDD263'
p317
aS'IDD265'
p318
aS'IDD270'
p319
atp320
bsg143
g144
stp321
Rp322
sg147
g4
(g5
(dp323
g7
g8
(g9
(I0
tp324
g11
tp325
Rp326
(I1
(L96L
tp327
g18
I00
(lp328
S'IDD57'
p329
aS'IDD59'
p330
aS'IDD60'
p331
aS'IDD62'
p332
aS'IDD66'
p333
aS'IDD68'
p334
aS'IDD70'
p335
aS'IDD71'
p336
aS'IDD76'
p337
aS'IDD81'
p338
aS'IDD82'
p339
aS'IDD83'
p340
aS'IDD90'
p341
aS'IDD92'
p342
aS'IDD93'
p343
aS'IDD94'
p344
aS'IDD95'
p345
aS'IDD96'
p346
aS'IDD98'
p347
aS'IDD102'
p348
aS'IDD104'
p349
aS'IDD105'
p350
aS'IDD106'
p351
aS'IDD108'
p352
ag248
ag249
ag250
ag251
ag252
ag253
ag254
ag255
ag256
ag257
ag258
ag259
ag260
ag261
ag262
ag263
ag264
ag265
ag266
ag267
ag268
ag269
ag270
ag271
ag272
ag273
ag274
ag275
ag276
ag277
ag278
ag279
ag280
ag281
ag282
ag283
ag284
ag285
ag286
ag287
ag288
ag289
ag290
ag291
ag292
ag293
ag294
ag295
ag296
ag297
ag298
ag299
ag300
ag301
ag302
ag303
ag304
ag305
ag306
ag307
ag308
ag309
ag310
ag311
ag312
ag313
ag314
ag315
ag316
ag317
ag318
ag319
atp353
bsg143
g144
stp354
Rp355
sg187
g4
(g5
(dp356
g7
g8
(g9
(I0
tp357
g11
tp358
Rp359
(I1
(L96L
tp360
g18
I00
(lp361
g224
ag225
ag226
ag227
ag228
ag229
ag230
ag231
ag232
ag233
ag234
ag235
ag236
ag237
ag238
ag239
ag240
ag241
ag242
ag243
ag244
ag245
ag246
ag247
ag329
ag330
ag331
ag332
ag333
ag334
ag335
ag336
ag337
ag338
ag339
ag340
ag341
ag342
ag343
ag344
ag345
ag346
ag347
ag348
ag349
ag350
ag351
ag352
ag248
ag249
ag250
ag251
ag252
ag253
ag254
ag255
ag256
ag257
ag258
ag259
ag260
ag261
ag262
ag263
ag264
ag265
ag266
ag267
ag268
ag269
ag270
ag271
ag296
ag297
ag298
ag299
ag300
ag301
ag302
ag303
ag304
ag305
ag306
ag307
ag308
ag309
ag310
ag311
ag312
ag313
ag314
ag315
ag316
ag317
ag318
ag319
atp362
bsg143
g144
stp363
Rp364
sg197
g4
(g5
(dp365
g7
g8
(g9
(I0
tp366
g11
tp367
Rp368
(I1
(L96L
tp369
g18
I00
(lp370
g224
ag225
ag226
ag227
ag228
ag229
ag230
ag231
ag232
ag233
ag234
ag235
ag236
ag237
ag238
ag239
ag240
ag241
ag242
ag243
ag244
ag245
ag246
ag247
ag329
ag330
ag331
ag332
ag333
ag334
ag335
ag336
ag337
ag338
ag339
ag340
ag341
ag342
ag343
ag344
ag345
ag346
ag347
ag348
ag349
ag350
ag351
ag352
ag272
ag273
ag274
ag275
ag276
ag277
ag278
ag279
ag280
ag281
ag282
ag283
ag284
ag285
ag286
ag287
ag288
ag289
ag290
ag291
ag292
ag293
ag294
ag295
ag296
ag297
ag298
ag299
ag300
ag301
ag302
ag303
ag304
ag305
ag306
ag307
ag308
ag309
ag310
ag311
ag312
ag313
ag314
ag315
ag316
ag317
ag318
ag319
atp371
bsg143
g144
stp372
Rp373
sg207
g4
(g5
(dp374
g7
g8
(g9
(I0
tp375
g11
tp376
Rp377
(I1
(L96L
tp378
g18
I00
(lp379
g224
ag225
ag226
ag227
ag228
ag229
ag230
ag231
ag232
ag233
ag234
ag235
ag236
ag237
ag238
ag239
ag240
ag241
ag242
ag243
ag244
ag245
ag246
ag247
ag329
ag330
ag331
ag332
ag333
ag334
ag335
ag336
ag337
ag338
ag339
ag340
ag341
ag342
ag343
ag344
ag345
ag346
ag347
ag348
ag349
ag350
ag351
ag352
ag248
ag249
ag250
ag251
ag252
ag253
ag254
ag255
ag256
ag257
ag258
ag259
ag260
ag261
ag262
ag263
ag264
ag265
ag266
ag267
ag268
ag269
ag270
ag271
ag272
ag273
ag274
ag275
ag276
ag277
ag278
ag279
ag280
ag281
ag282
ag283
ag284
ag285
ag286
ag287
ag288
ag289
ag290
ag291
ag292
ag293
ag294
ag295
atp380
bsg143
g144
stp381
Rp382
ssa(dp383
I1
(dp384
g3
g4
(g5
(dp385
g7
g8
(g9
(I0
tp386
g11
tp387
Rp388
(I1
(L30L
tp389
g18
I00
(lp390
g154
ag155
ag156
ag157
ag158
ag159
ag160
ag161
ag162
ag163
ag164
ag165
ag166
ag167
ag168
ag169
ag170
ag171
ag172
ag173
ag174
ag175
ag176
ag177
ag178
ag179
ag180
ag181
ag182
ag183
atp391
bsg143
g144
stp392
Rp393
sg147
g4
(g5
(dp394
g7
g8
(g9
(I0
tp395
g11
tp396
Rp397
(I1
(L30L
tp398
g18
I00
(lp399
g22
ag23
ag24
ag25
ag26
ag27
ag28
ag29
ag30
ag31
ag32
ag33
ag34
ag35
ag36
ag37
ag38
ag39
ag40
ag41
ag42
ag43
ag44
ag45
ag46
ag47
ag48
ag49
ag50
ag51
atp400
bsg143
g144
stp401
Rp402
sg187
g4
(g5
(dp403
g7
g8
(g9
(I0
tp404
g11
tp405
Rp406
(I1
(L30L
tp407
g18
I00
(lp408
g82
ag83
ag84
ag85
ag86
ag87
ag88
ag89
ag90
ag91
ag92
ag93
ag94
ag95
ag96
ag97
ag98
ag99
ag100
ag101
ag102
ag103
ag104
ag105
ag106
ag107
ag108
ag109
ag110
ag111
atp409
bsg143
g144
stp410
Rp411
sg197
g4
(g5
(dp412
g7
g8
(g9
(I0
tp413
g11
tp414
Rp415
(I1
(L30L
tp416
g18
I00
(lp417
g52
ag53
ag54
ag55
ag56
ag57
ag58
ag59
ag60
ag61
ag62
ag63
ag64
ag65
ag66
ag67
ag68
ag69
ag70
ag71
ag72
ag73
ag74
ag75
ag76
ag77
ag78
ag79
ag80
ag81
atp418
bsg143
g144
stp419
Rp420
sg207
g4
(g5
(dp421
g7
g8
(g9
(I0
tp422
g11
tp423
Rp424
(I1
(L30L
tp425
g18
I00
(lp426
g112
ag113
ag114
ag115
ag116
ag117
ag118
ag119
ag120
ag121
ag122
ag123
ag124
ag125
ag126
ag127
ag128
ag129
ag130
ag131
ag132
ag133
ag134
ag135
ag136
ag137
ag138
ag139
ag140
ag141
atp427
bsg143
g144
stp428
Rp429
ssI2
(dp430
g3
g4
(g5
(dp431
g7
g8
(g9
(I0
tp432
g11
tp433
Rp434
(I1
(L24L
tp435
g18
I00
(lp436
g329
ag330
ag331
ag332
ag333
ag334
ag335
ag336
ag337
ag338
ag339
ag340
ag341
ag342
ag343
ag344
ag345
ag346
ag347
ag348
ag349
ag350
ag351
ag352
atp437
bsg143
g144
stp438
Rp439
sg147
g4
(g5
(dp440
g7
g8
(g9
(I0
tp441
g11
tp442
Rp443
(I1
(L24L
tp444
g18
I00
(lp445
g224
ag225
ag226
ag227
ag228
ag229
ag230
ag231
ag232
ag233
ag234
ag235
ag236
ag237
ag238
ag239
ag240
ag241
ag242
ag243
ag244
ag245
ag246
ag247
atp446
bsg143
g144
stp447
Rp448
sg187
g4
(g5
(dp449
g7
g8
(g9
(I0
tp450
g11
tp451
Rp452
(I1
(L24L
tp453
g18
I00
(lp454
g272
ag273
ag274
ag275
ag276
ag277
ag278
ag279
ag280
ag281
ag282
ag283
ag284
ag285
ag286
ag287
ag288
ag289
ag290
ag291
ag292
ag293
ag294
ag295
atp455
bsg143
g144
stp456
Rp457
sg197
g4
(g5
(dp458
g7
g8
(g9
(I0
tp459
g11
tp460
Rp461
(I1
(L24L
tp462
g18
I00
(lp463
g248
ag249
ag250
ag251
ag252
ag253
ag254
ag255
ag256
ag257
ag258
ag259
ag260
ag261
ag262
ag263
ag264
ag265
ag266
ag267
ag268
ag269
ag270
ag271
atp464
bsg143
g144
stp465
Rp466
sg207
g4
(g5
(dp467
g7
g8
(g9
(I0
tp468
g11
tp469
Rp470
(I1
(L24L
tp471
g18
I00
(lp472
g296
ag297
ag298
ag299
ag300
ag301
ag302
ag303
ag304
ag305
ag306
ag307
ag308
ag309
ag310
ag311
ag312
ag313
ag314
ag315
ag316
ag317
ag318
ag319
atp473
bsg143
g144
stp474
Rp475
ssa(dp476
I1
(dp477
g3
ccopy_reg
_reconstructor
p478
(cpandas.core.series
Series
p479
c__builtin__
object
p480
Ntp481
Rp482
(dp483
S'_metadata'
p484
(lp485
g143
asS'_data'
p486
g478
(cpandas.core.internals
SingleBlockManager
p487
g480
Ntp488
Rp489
((lp490
g4
(g5
(dp491
g7
g8
(g9
(I0
tp492
g11
tp493
Rp494
(I1
(L120L
tp495
g18
I00
(lp496
g22
ag23
ag24
ag25
ag26
ag27
ag28
ag29
ag30
ag31
ag32
ag33
ag34
ag35
ag36
ag37
ag38
ag39
ag40
ag41
ag42
ag43
ag44
ag45
ag46
ag47
ag48
ag49
ag50
ag51
ag52
ag53
ag54
ag55
ag56
ag57
ag58
ag59
ag60
ag61
ag62
ag63
ag64
ag65
ag66
ag67
ag68
ag69
ag70
ag71
ag72
ag73
ag74
ag75
ag76
ag77
ag78
ag79
ag80
ag81
ag82
ag83
ag84
ag85
ag86
ag87
ag88
ag89
ag90
ag91
ag92
ag93
ag94
ag95
ag96
ag97
ag98
ag99
ag100
ag101
ag102
ag103
ag104
ag105
ag106
ag107
ag108
ag109
ag110
ag111
ag112
ag113
ag114
ag115
ag116
ag117
ag118
ag119
ag120
ag121
ag122
ag123
ag124
ag125
ag126
ag127
ag128
ag129
ag130
ag131
ag132
ag133
ag134
ag135
ag136
ag137
ag138
ag139
ag140
ag141
atp497
bsg143
g144
stp498
Rp499
a(lp500
g8
(g9
(I0
tp501
g11
tp502
Rp503
(I1
(L120L
tp504
g15
(S'b1'
p505
I0
I1
tp506
Rp507
(I3
S'|'
p508
NNNI-1
I-1
I0
tp509
bI00
S'\x01\x01\x01\x01\x01\x01\x01\x01\x01\x01\x01\x01\x01\x01\x01\x01\x01\x01\x01\x01\x01\x01\x01\x01\x01\x01\x01\x01\x01\x01\x01\x01\x01\x01\x01\x01\x01\x01\x01\x01\x01\x01\x01\x01\x01\x01\x01\x01\x01\x01\x01\x01\x01\x01\x01\x01\x01\x01\x01\x01\x01\x01\x01\x01\x01\x01\x01\x01\x01\x01\x01\x01\x01\x01\x01\x01\x01\x01\x01\x01\x01\x01\x01\x01\x01\x01\x01\x01\x01\x01\x01\x01\x01\x01\x01\x01\x01\x01\x01\x01\x01\x01\x01\x01\x01\x01\x01\x01\x01\x01\x01\x01\x01\x01\x01\x01\x01\x01\x01\x01'
p510
tp511
ba(lp512
g4
(g5
(dp513
g7
g8
(g9
(I0
tp514
g11
tp515
Rp516
(I1
(L120L
tp517
g18
I00
(lp518
g22
ag23
ag24
ag25
ag26
ag27
ag28
ag29
ag30
ag31
ag32
ag33
ag34
ag35
ag36
ag37
ag38
ag39
ag40
ag41
ag42
ag43
ag44
ag45
ag46
ag47
ag48
ag49
ag50
ag51
ag52
ag53
ag54
ag55
ag56
ag57
ag58
ag59
ag60
ag61
ag62
ag63
ag64
ag65
ag66
ag67
ag68
ag69
ag70
ag71
ag72
ag73
ag74
ag75
ag76
ag77
ag78
ag79
ag80
ag81
ag82
ag83
ag84
ag85
ag86
ag87
ag88
ag89
ag90
ag91
ag92
ag93
ag94
ag95
ag96
ag97
ag98
ag99
ag100
ag101
ag102
ag103
ag104
ag105
ag106
ag107
ag108
ag109
ag110
ag111
ag112
ag113
ag114
ag115
ag116
ag117
ag118
ag119
ag120
ag121
ag122
ag123
ag124
ag125
ag126
ag127
ag128
ag129
ag130
ag131
ag132
ag133
ag134
ag135
ag136
ag137
ag138
ag139
ag140
ag141
atp519
bsg143
g144
stp520
Rp521
a(dp522
S'0.14.1'
p523
(dp524
S'axes'
p525
g490
sS'blocks'
p526
(lp527
(dp528
S'mgr_locs'
p529
c__builtin__
slice
p530
(I0
I120
I1
tp531
Rp532
sS'values'
p533
g503
sasstp534
bsS'_typ'
p535
S'series'
p536
sg143
S'Class'
p537
sbsg147
g478
(g479
g480
Ntp538
Rp539
(dp540
g484
g485
sg486
g478
(g487
g480
Ntp541
Rp542
((lp543
g4
(g5
(dp544
g7
g8
(g9
(I0
tp545
g11
tp546
Rp547
(I1
(L120L
tp548
g18
I00
(lp549
g154
ag155
ag156
ag157
ag158
ag159
ag160
ag161
ag162
ag163
ag164
ag165
ag166
ag167
ag168
ag169
ag170
ag171
ag172
ag173
ag174
ag175
ag176
ag177
ag178
ag179
ag180
ag181
ag182
ag183
ag52
ag53
ag54
ag55
ag56
ag57
ag58
ag59
ag60
ag61
ag62
ag63
ag64
ag65
ag66
ag67
ag68
ag69
ag70
ag71
ag72
ag73
ag74
ag75
ag76
ag77
ag78
ag79
ag80
ag81
ag82
ag83
ag84
ag85
ag86
ag87
ag88
ag89
ag90
ag91
ag92
ag93
ag94
ag95
ag96
ag97
ag98
ag99
ag100
ag101
ag102
ag103
ag104
ag105
ag106
ag107
ag108
ag109
ag110
ag111
ag112
ag113
ag114
ag115
ag116
ag117
ag118
ag119
ag120
ag121
ag122
ag123
ag124
ag125
ag126
ag127
ag128
ag129
ag130
ag131
ag132
ag133
ag134
ag135
ag136
ag137
ag138
ag139
ag140
ag141
atp550
bsg143
g144
stp551
Rp552
a(lp553
g8
(g9
(I0
tp554
g11
tp555
Rp556
(I1
(L120L
tp557
g507
I00
S'\x01\x01\x01\x01\x01\x01\x01\x01\x01\x01\x01\x01\x01\x01\x01\x01\x01\x01\x01\x01\x01\x01\x01\x01\x01\x01\x01\x01\x01\x01\x01\x01\x01\x01\x01\x01\x01\x01\x01\x01\x01\x01\x01\x01\x01\x01\x01\x01\x01\x01\x01\x01\x01\x01\x01\x01\x01\x01\x01\x01\x01\x01\x01\x01\x01\x01\x01\x01\x01\x01\x01\x01\x01\x01\x01\x01\x01\x01\x01\x01\x01\x01\x01\x01\x01\x01\x01\x01\x01\x01\x01\x01\x01\x01\x01\x01\x01\x01\x01\x01\x01\x01\x01\x01\x01\x01\x01\x01\x01\x01\x01\x01\x01\x01\x01\x01\x01\x01\x01\x01'
p558
tp559
ba(lp560
g4
(g5
(dp561
g7
g8
(g9
(I0
tp562
g11
tp563
Rp564
(I1
(L120L
tp565
g18
I00
(lp566
g154
ag155
ag156
ag157
ag158
ag159
ag160
ag161
ag162
ag163
ag164
ag165
ag166
ag167
ag168
ag169
ag170
ag171
ag172
ag173
ag174
ag175
ag176
ag177
ag178
ag179
ag180
ag181
ag182
ag183
ag52
ag53
ag54
ag55
ag56
ag57
ag58
ag59
ag60
ag61
ag62
ag63
ag64
ag65
ag66
ag67
ag68
ag69
ag70
ag71
ag72
ag73
ag74
ag75
ag76
ag77
ag78
ag79
ag80
ag81
ag82
ag83
ag84
ag85
ag86
ag87
ag88
ag89
ag90
ag91
ag92
ag93
ag94
ag95
ag96
ag97
ag98
ag99
ag100
ag101
ag102
ag103
ag104
ag105
ag106
ag107
ag108
ag109
ag110
ag111
ag112
ag113
ag114
ag115
ag116
ag117
ag118
ag119
ag120
ag121
ag122
ag123
ag124
ag125
ag126
ag127
ag128
ag129
ag130
ag131
ag132
ag133
ag134
ag135
ag136
ag137
ag138
ag139
ag140
ag141
atp567
bsg143
g144
stp568
Rp569
a(dp570
g523
(dp571
g525
g543
sg526
(lp572
(dp573
g529
g530
(I0
I120
I1
tp574
Rp575
sg533
g556
sasstp576
bsg535
g536
sg143
g537
sbsg187
g478
(g479
g480
Ntp577
Rp578
(dp579
g484
g485
sg486
g478
(g487
g480
Ntp580
Rp581
((lp582
g4
(g5
(dp583
g7
g8
(g9
(I0
tp584
g11
tp585
Rp586
(I1
(L120L
tp587
g18
I00
(lp588
g22
ag23
ag24
ag25
ag26
ag27
ag28
ag29
ag30
ag31
ag32
ag33
ag34
ag35
ag36
ag37
ag38
ag39
ag40
ag41
ag42
ag43
ag44
ag45
ag46
ag47
ag48
ag49
ag50
ag51
ag154
ag155
ag156
ag157
ag158
ag159
ag160
ag161
ag162
ag163
ag164
ag165
ag166
ag167
ag168
ag169
ag170
ag171
ag172
ag173
ag174
ag175
ag176
ag177
ag178
ag179
ag180
ag181
ag182
ag183
ag52
ag53
ag54
ag55
ag56
ag57
ag58
ag59
ag60
ag61
ag62
ag63
ag64
ag65
ag66
ag67
ag68
ag69
ag70
ag71
ag72
ag73
ag74
ag75
ag76
ag77
ag78
ag79
ag80
ag81
ag112
ag113
ag114
ag115
ag116
ag117
ag118
ag119
ag120
ag121
ag122
ag123
ag124
ag125
ag126
ag127
ag128
ag129
ag130
ag131
ag132
ag133
ag134
ag135
ag136
ag137
ag138
ag139
ag140
ag141
atp589
bsg143
g144
stp590
Rp591
a(lp592
g8
(g9
(I0
tp593
g11
tp594
Rp595
(I1
(L120L
tp596
g507
I00
S'\x01\x01\x01\x01\x01\x01\x01\x01\x01\x01\x01\x01\x01\x01\x01\x01\x01\x01\x01\x01\x01\x01\x01\x01\x01\x01\x01\x01\x01\x01\x01\x01\x01\x01\x01\x01\x01\x01\x01\x01\x01\x01\x01\x01\x01\x01\x01\x01\x01\x01\x01\x01\x01\x01\x01\x01\x01\x01\x01\x01\x01\x01\x01\x01\x01\x01\x01\x01\x01\x01\x01\x01\x01\x01\x01\x01\x01\x01\x01\x01\x01\x01\x01\x01\x01\x01\x01\x01\x01\x01\x01\x01\x01\x01\x01\x01\x01\x01\x01\x01\x01\x01\x01\x01\x01\x01\x01\x01\x01\x01\x01\x01\x01\x01\x01\x01\x01\x01\x01\x01'
p597
tp598
ba(lp599
g4
(g5
(dp600
g7
g8
(g9
(I0
tp601
g11
tp602
Rp603
(I1
(L120L
tp604
g18
I00
(lp605
g22
ag23
ag24
ag25
ag26
ag27
ag28
ag29
ag30
ag31
ag32
ag33
ag34
ag35
ag36
ag37
ag38
ag39
ag40
ag41
ag42
ag43
ag44
ag45
ag46
ag47
ag48
ag49
ag50
ag51
ag154
ag155
ag156
ag157
ag158
ag159
ag160
ag161
ag162
ag163
ag164
ag165
ag166
ag167
ag168
ag169
ag170
ag171
ag172
ag173
ag174
ag175
ag176
ag177
ag178
ag179
ag180
ag181
ag182
ag183
ag52
ag53
ag54
ag55
ag56
ag57
ag58
ag59
ag60
ag61
ag62
ag63
ag64
ag65
ag66
ag67
ag68
ag69
ag70
ag71
ag72
ag73
ag74
ag75
ag76
ag77
ag78
ag79
ag80
ag81
ag112
ag113
ag114
ag115
ag116
ag117
ag118
ag119
ag120
ag121
ag122
ag123
ag124
ag125
ag126
ag127
ag128
ag129
ag130
ag131
ag132
ag133
ag134
ag135
ag136
ag137
ag138
ag139
ag140
ag141
atp606
bsg143
g144
stp607
Rp608
a(dp609
g523
(dp610
g525
g582
sg526
(lp611
(dp612
g529
g530
(I0
I120
I1
tp613
Rp614
sg533
g595
sasstp615
bsg535
g536
sg143
g537
sbsg197
g478
(g479
g480
Ntp616
Rp617
(dp618
g484
g485
sg486
g478
(g487
g480
Ntp619
Rp620
((lp621
g4
(g5
(dp622
g7
g8
(g9
(I0
tp623
g11
tp624
Rp625
(I1
(L120L
tp626
g18
I00
(lp627
g22
ag23
ag24
ag25
ag26
ag27
ag28
ag29
ag30
ag31
ag32
ag33
ag34
ag35
ag36
ag37
ag38
ag39
ag40
ag41
ag42
ag43
ag44
ag45
ag46
ag47
ag48
ag49
ag50
ag51
ag154
ag155
ag156
ag157
ag158
ag159
ag160
ag161
ag162
ag163
ag164
ag165
ag166
ag167
ag168
ag169
ag170
ag171
ag172
ag173
ag174
ag175
ag176
ag177
ag178
ag179
ag180
ag181
ag182
ag183
ag82
ag83
ag84
ag85
ag86
ag87
ag88
ag89
ag90
ag91
ag92
ag93
ag94
ag95
ag96
ag97
ag98
ag99
ag100
ag101
ag102
ag103
ag104
ag105
ag106
ag107
ag108
ag109
ag110
ag111
ag112
ag113
ag114
ag115
ag116
ag117
ag118
ag119
ag120
ag121
ag122
ag123
ag124
ag125
ag126
ag127
ag128
ag129
ag130
ag131
ag132
ag133
ag134
ag135
ag136
ag137
ag138
ag139
ag140
ag141
atp628
bsg143
g144
stp629
Rp630
a(lp631
g8
(g9
(I0
tp632
g11
tp633
Rp634
(I1
(L120L
tp635
g507
I00
S'\x01\x01\x01\x01\x01\x01\x01\x01\x01\x01\x01\x01\x01\x01\x01\x01\x01\x01\x01\x01\x01\x01\x01\x01\x01\x01\x01\x01\x01\x01\x01\x01\x01\x01\x01\x01\x01\x01\x01\x01\x01\x01\x01\x01\x01\x01\x01\x01\x01\x01\x01\x01\x01\x01\x01\x01\x01\x01\x01\x01\x01\x01\x01\x01\x01\x01\x01\x01\x01\x01\x01\x01\x01\x01\x01\x01\x01\x01\x01\x01\x01\x01\x01\x01\x01\x01\x01\x01\x01\x01\x01\x01\x01\x01\x01\x01\x01\x01\x01\x01\x01\x01\x01\x01\x01\x01\x01\x01\x01\x01\x01\x01\x01\x01\x01\x01\x01\x01\x01\x01'
p636
tp637
ba(lp638
g4
(g5
(dp639
g7
g8
(g9
(I0
tp640
g11
tp641
Rp642
(I1
(L120L
tp643
g18
I00
(lp644
g22
ag23
ag24
ag25
ag26
ag27
ag28
ag29
ag30
ag31
ag32
ag33
ag34
ag35
ag36
ag37
ag38
ag39
ag40
ag41
ag42
ag43
ag44
ag45
ag46
ag47
ag48
ag49
ag50
ag51
ag154
ag155
ag156
ag157
ag158
ag159
ag160
ag161
ag162
ag163
ag164
ag165
ag166
ag167
ag168
ag169
ag170
ag171
ag172
ag173
ag174
ag175
ag176
ag177
ag178
ag179
ag180
ag181
ag182
ag183
ag82
ag83
ag84
ag85
ag86
ag87
ag88
ag89
ag90
ag91
ag92
ag93
ag94
ag95
ag96
ag97
ag98
ag99
ag100
ag101
ag102
ag103
ag104
ag105
ag106
ag107
ag108
ag109
ag110
ag111
ag112
ag113
ag114
ag115
ag116
ag117
ag118
ag119
ag120
ag121
ag122
ag123
ag124
ag125
ag126
ag127
ag128
ag129
ag130
ag131
ag132
ag133
ag134
ag135
ag136
ag137
ag138
ag139
ag140
ag141
atp645
bsg143
g144
stp646
Rp647
a(dp648
g523
(dp649
g525
g621
sg526
(lp650
(dp651
g529
g530
(I0
I120
I1
tp652
Rp653
sg533
g634
sasstp654
bsg535
g536
sg143
g537
sbsg207
g478
(g479
g480
Ntp655
Rp656
(dp657
g484
g485
sg486
g478
(g487
g480
Ntp658
Rp659
((lp660
g4
(g5
(dp661
g7
g8
(g9
(I0
tp662
g11
tp663
Rp664
(I1
(L120L
tp665
g18
I00
(lp666
g22
ag23
ag24
ag25
ag26
ag27
ag28
ag29
ag30
ag31
ag32
ag33
ag34
ag35
ag36
ag37
ag38
ag39
ag40
ag41
ag42
ag43
ag44
ag45
ag46
ag47
ag48
ag49
ag50
ag51
ag154
ag155
ag156
ag157
ag158
ag159
ag160
ag161
ag162
ag163
ag164
ag165
ag166
ag167
ag168
ag169
ag170
ag171
ag172
ag173
ag174
ag175
ag176
ag177
ag178
ag179
ag180
ag181
ag182
ag183
ag52
ag53
ag54
ag55
ag56
ag57
ag58
ag59
ag60
ag61
ag62
ag63
ag64
ag65
ag66
ag67
ag68
ag69
ag70
ag71
ag72
ag73
ag74
ag75
ag76
ag77
ag78
ag79
ag80
ag81
ag82
ag83
ag84
ag85
ag86
ag87
ag88
ag89
ag90
ag91
ag92
ag93
ag94
ag95
ag96
ag97
ag98
ag99
ag100
ag101
ag102
ag103
ag104
ag105
ag106
ag107
ag108
ag109
ag110
ag111
atp667
bsg143
g144
stp668
Rp669
a(lp670
g8
(g9
(I0
tp671
g11
tp672
Rp673
(I1
(L120L
tp674
g507
I00
S'\x01\x01\x01\x01\x01\x01\x01\x01\x01\x01\x01\x01\x01\x01\x01\x01\x01\x01\x01\x01\x01\x01\x01\x01\x01\x01\x01\x01\x01\x01\x01\x01\x01\x01\x01\x01\x01\x01\x01\x01\x01\x01\x01\x01\x01\x01\x01\x01\x01\x01\x01\x01\x01\x01\x01\x01\x01\x01\x01\x01\x01\x01\x01\x01\x01\x01\x01\x01\x01\x01\x01\x01\x01\x01\x01\x01\x01\x01\x01\x01\x01\x01\x01\x01\x01\x01\x01\x01\x01\x01\x01\x01\x01\x01\x01\x01\x01\x01\x01\x01\x01\x01\x01\x01\x01\x01\x01\x01\x01\x01\x01\x01\x01\x01\x01\x01\x01\x01\x01\x01'
p675
tp676
ba(lp677
g4
(g5
(dp678
g7
g8
(g9
(I0
tp679
g11
tp680
Rp681
(I1
(L120L
tp682
g18
I00
(lp683
g22
ag23
ag24
ag25
ag26
ag27
ag28
ag29
ag30
ag31
ag32
ag33
ag34
ag35
ag36
ag37
ag38
ag39
ag40
ag41
ag42
ag43
ag44
ag45
ag46
ag47
ag48
ag49
ag50
ag51
ag154
ag155
ag156
ag157
ag158
ag159
ag160
ag161
ag162
ag163
ag164
ag165
ag166
ag167
ag168
ag169
ag170
ag171
ag172
ag173
ag174
ag175
ag176
ag177
ag178
ag179
ag180
ag181
ag182
ag183
ag52
ag53
ag54
ag55
ag56
ag57
ag58
ag59
ag60
ag61
ag62
ag63
ag64
ag65
ag66
ag67
ag68
ag69
ag70
ag71
ag72
ag73
ag74
ag75
ag76
ag77
ag78
ag79
ag80
ag81
ag82
ag83
ag84
ag85
ag86
ag87
ag88
ag89
ag90
ag91
ag92
ag93
ag94
ag95
ag96
ag97
ag98
ag99
ag100
ag101
ag102
ag103
ag104
ag105
ag106
ag107
ag108
ag109
ag110
ag111
atp684
bsg143
g144
stp685
Rp686
a(dp687
g523
(dp688
g525
g660
sg526
(lp689
(dp690
g529
g530
(I0
I120
I1
tp691
Rp692
sg533
g673
sasstp693
bsg535
g536
sg143
g537
sbssI2
(dp694
g3
g478
(g479
g480
Ntp695
Rp696
(dp697
g484
g485
sg486
g478
(g487
g480
Ntp698
Rp699
((lp700
g4
(g5
(dp701
g7
g8
(g9
(I0
tp702
g11
tp703
Rp704
(I1
(L96L
tp705
g18
I00
(lp706
g224
ag225
ag226
ag227
ag228
ag229
ag230
ag231
ag232
ag233
ag234
ag235
ag236
ag237
ag238
ag239
ag240
ag241
ag242
ag243
ag244
ag245
ag246
ag247
ag248
ag249
ag250
ag251
ag252
ag253
ag254
ag255
ag256
ag257
ag258
ag259
ag260
ag261
ag262
ag263
ag264
ag265
ag266
ag267
ag268
ag269
ag270
ag271
ag272
ag273
ag274
ag275
ag276
ag277
ag278
ag279
ag280
ag281
ag282
ag283
ag284
ag285
ag286
ag287
ag288
ag289
ag290
ag291
ag292
ag293
ag294
ag295
ag296
ag297
ag298
ag299
ag300
ag301
ag302
ag303
ag304
ag305
ag306
ag307
ag308
ag309
ag310
ag311
ag312
ag313
ag314
ag315
ag316
ag317
ag318
ag319
atp707
bsg143
g144
stp708
Rp709
a(lp710
g8
(g9
(I0
tp711
g11
tp712
Rp713
(I1
(L96L
tp714
g507
I00
S'\x01\x01\x01\x01\x01\x01\x01\x01\x01\x01\x01\x01\x01\x01\x01\x01\x01\x01\x01\x01\x01\x01\x01\x01\x01\x01\x01\x01\x01\x01\x01\x01\x01\x01\x01\x01\x01\x01\x01\x01\x01\x01\x01\x01\x01\x01\x01\x01\x01\x01\x01\x01\x01\x01\x01\x01\x01\x01\x01\x01\x01\x01\x01\x01\x01\x01\x01\x01\x01\x01\x01\x01\x01\x01\x01\x01\x01\x01\x01\x01\x01\x01\x01\x01\x01\x01\x01\x01\x01\x01\x01\x01\x01\x01\x01\x01'
p715
tp716
ba(lp717
g4
(g5
(dp718
g7
g8
(g9
(I0
tp719
g11
tp720
Rp721
(I1
(L96L
tp722
g18
I00
(lp723
g224
ag225
ag226
ag227
ag228
ag229
ag230
ag231
ag232
ag233
ag234
ag235
ag236
ag237
ag238
ag239
ag240
ag241
ag242
ag243
ag244
ag245
ag246
ag247
ag248
ag249
ag250
ag251
ag252
ag253
ag254
ag255
ag256
ag257
ag258
ag259
ag260
ag261
ag262
ag263
ag264
ag265
ag266
ag267
ag268
ag269
ag270
ag271
ag272
ag273
ag274
ag275
ag276
ag277
ag278
ag279
ag280
ag281
ag282
ag283
ag284
ag285
ag286
ag287
ag288
ag289
ag290
ag291
ag292
ag293
ag294
ag295
ag296
ag297
ag298
ag299
ag300
ag301
ag302
ag303
ag304
ag305
ag306
ag307
ag308
ag309
ag310
ag311
ag312
ag313
ag314
ag315
ag316
ag317
ag318
ag319
atp724
bsg143
g144
stp725
Rp726
a(dp727
g523
(dp728
g525
g700
sg526
(lp729
(dp730
g529
g530
(I0
I96
I1
tp731
Rp732
sg533
g713
sasstp733
bsg535
g536
sg143
g537
sbsg147
g478
(g479
g480
Ntp734
Rp735
(dp736
g484
g485
sg486
g478
(g487
g480
Ntp737
Rp738
((lp739
g4
(g5
(dp740
g7
g8
(g9
(I0
tp741
g11
tp742
Rp743
(I1
(L96L
tp744
g18
I00
(lp745
g329
ag330
ag331
ag332
ag333
ag334
ag335
ag336
ag337
ag338
ag339
ag340
ag341
ag342
ag343
ag344
ag345
ag346
ag347
ag348
ag349
ag350
ag351
ag352
ag248
ag249
ag250
ag251
ag252
ag253
ag254
ag255
ag256
ag257
ag258
ag259
ag260
ag261
ag262
ag263
ag264
ag265
ag266
ag267
ag268
ag269
ag270
ag271
ag272
ag273
ag274
ag275
ag276
ag277
ag278
ag279
ag280
ag281
ag282
ag283
ag284
ag285
ag286
ag287
ag288
ag289
ag290
ag291
ag292
ag293
ag294
ag295
ag296
ag297
ag298
ag299
ag300
ag301
ag302
ag303
ag304
ag305
ag306
ag307
ag308
ag309
ag310
ag311
ag312
ag313
ag314
ag315
ag316
ag317
ag318
ag319
atp746
bsg143
g144
stp747
Rp748
a(lp749
g8
(g9
(I0
tp750
g11
tp751
Rp752
(I1
(L96L
tp753
g507
I00
S'\x01\x01\x01\x01\x01\x01\x01\x01\x01\x01\x01\x01\x01\x01\x01\x01\x01\x01\x01\x01\x01\x01\x01\x01\x01\x01\x01\x01\x01\x01\x01\x01\x01\x01\x01\x01\x01\x01\x01\x01\x01\x01\x01\x01\x01\x01\x01\x01\x01\x01\x01\x01\x01\x01\x01\x01\x01\x01\x01\x01\x01\x01\x01\x01\x01\x01\x01\x01\x01\x01\x01\x01\x01\x01\x01\x01\x01\x01\x01\x01\x01\x01\x01\x01\x01\x01\x01\x01\x01\x01\x01\x01\x01\x01\x01\x01'
p754
tp755
ba(lp756
g4
(g5
(dp757
g7
g8
(g9
(I0
tp758
g11
tp759
Rp760
(I1
(L96L
tp761
g18
I00
(lp762
g329
ag330
ag331
ag332
ag333
ag334
ag335
ag336
ag337
ag338
ag339
ag340
ag341
ag342
ag343
ag344
ag345
ag346
ag347
ag348
ag349
ag350
ag351
ag352
ag248
ag249
ag250
ag251
ag252
ag253
ag254
ag255
ag256
ag257
ag258
ag259
ag260
ag261
ag262
ag263
ag264
ag265
ag266
ag267
ag268
ag269
ag270
ag271
ag272
ag273
ag274
ag275
ag276
ag277
ag278
ag279
ag280
ag281
ag282
ag283
ag284
ag285
ag286
ag287
ag288
ag289
ag290
ag291
ag292
ag293
ag294
ag295
ag296
ag297
ag298
ag299
ag300
ag301
ag302
ag303
ag304
ag305
ag306
ag307
ag308
ag309
ag310
ag311
ag312
ag313
ag314
ag315
ag316
ag317
ag318
ag319
atp763
bsg143
g144
stp764
Rp765
a(dp766
g523
(dp767
g525
g739
sg526
(lp768
(dp769
g529
g530
(I0
I96
I1
tp770
Rp771
sg533
g752
sasstp772
bsg535
g536
sg143
g537
sbsg187
g478
(g479
g480
Ntp773
Rp774
(dp775
g484
g485
sg486
g478
(g487
g480
Ntp776
Rp777
((lp778
g4
(g5
(dp779
g7
g8
(g9
(I0
tp780
g11
tp781
Rp782
(I1
(L96L
tp783
g18
I00
(lp784
g224
ag225
ag226
ag227
ag228
ag229
ag230
ag231
ag232
ag233
ag234
ag235
ag236
ag237
ag238
ag239
ag240
ag241
ag242
ag243
ag244
ag245
ag246
ag247
ag329
ag330
ag331
ag332
ag333
ag334
ag335
ag336
ag337
ag338
ag339
ag340
ag341
ag342
ag343
ag344
ag345
ag346
ag347
ag348
ag349
ag350
ag351
ag352
ag248
ag249
ag250
ag251
ag252
ag253
ag254
ag255
ag256
ag257
ag258
ag259
ag260
ag261
ag262
ag263
ag264
ag265
ag266
ag267
ag268
ag269
ag270
ag271
ag296
ag297
ag298
ag299
ag300
ag301
ag302
ag303
ag304
ag305
ag306
ag307
ag308
ag309
ag310
ag311
ag312
ag313
ag314
ag315
ag316
ag317
ag318
ag319
atp785
bsg143
g144
stp786
Rp787
a(lp788
g8
(g9
(I0
tp789
g11
tp790
Rp791
(I1
(L96L
tp792
g507
I00
S'\x01\x01\x01\x01\x01\x01\x01\x01\x01\x01\x01\x01\x01\x01\x01\x01\x01\x01\x01\x01\x01\x01\x01\x01\x01\x01\x01\x01\x01\x01\x01\x01\x01\x01\x01\x01\x01\x01\x01\x01\x01\x01\x01\x01\x01\x01\x01\x01\x01\x01\x01\x01\x01\x01\x01\x01\x01\x01\x01\x01\x01\x01\x01\x01\x01\x01\x01\x01\x01\x01\x01\x01\x01\x01\x01\x01\x01\x01\x01\x01\x01\x01\x01\x01\x01\x01\x01\x01\x01\x01\x01\x01\x01\x01\x01\x01'
p793
tp794
ba(lp795
g4
(g5
(dp796
g7
g8
(g9
(I0
tp797
g11
tp798
Rp799
(I1
(L96L
tp800
g18
I00
(lp801
g224
ag225
ag226
ag227
ag228
ag229
ag230
ag231
ag232
ag233
ag234
ag235
ag236
ag237
ag238
ag239
ag240
ag241
ag242
ag243
ag244
ag245
ag246
ag247
ag329
ag330
ag331
ag332
ag333
ag334
ag335
ag336
ag337
ag338
ag339
ag340
ag341
ag342
ag343
ag344
ag345
ag346
ag347
ag348
ag349
ag350
ag351
ag352
ag248
ag249
ag250
ag251
ag252
ag253
ag254
ag255
ag256
ag257
ag258
ag259
ag260
ag261
ag262
ag263
ag264
ag265
ag266
ag267
ag268
ag269
ag270
ag271
ag296
ag297
ag298
ag299
ag300
ag301
ag302
ag303
ag304
ag305
ag306
ag307
ag308
ag309
ag310
ag311
ag312
ag313
ag314
ag315
ag316
ag317
ag318
ag319
atp802
bsg143
g144
stp803
Rp804
a(dp805
g523
(dp806
g525
g778
sg526
(lp807
(dp808
g529
g530
(I0
I96
I1
tp809
Rp810
sg533
g791
sasstp811
bsg535
g536
sg143
g537
sbsg197
g478
(g479
g480
Ntp812
Rp813
(dp814
g484
g485
sg486
g478
(g487
g480
Ntp815
Rp816
((lp817
g4
(g5
(dp818
g7
g8
(g9
(I0
tp819
g11
tp820
Rp821
(I1
(L96L
tp822
g18
I00
(lp823
g224
ag225
ag226
ag227
ag228
ag229
ag230
ag231
ag232
ag233
ag234
ag235
ag236
ag237
ag238
ag239
ag240
ag241
ag242
ag243
ag244
ag245
ag246
ag247
ag329
ag330
ag331
ag332
ag333
ag334
ag335
ag336
ag337
ag338
ag339
ag340
ag341
ag342
ag343
ag344
ag345
ag346
ag347
ag348
ag349
ag350
ag351
ag352
ag272
ag273
ag274
ag275
ag276
ag277
ag278
ag279
ag280
ag281
ag282
ag283
ag284
ag285
ag286
ag287
ag288
ag289
ag290
ag291
ag292
ag293
ag294
ag295
ag296
ag297
ag298
ag299
ag300
ag301
ag302
ag303
ag304
ag305
ag306
ag307
ag308
ag309
ag310
ag311
ag312
ag313
ag314
ag315
ag316
ag317
ag318
ag319
atp824
bsg143
g144
stp825
Rp826
a(lp827
g8
(g9
(I0
tp828
g11
tp829
Rp830
(I1
(L96L
tp831
g507
I00
S'\x01\x01\x01\x01\x01\x01\x01\x01\x01\x01\x01\x01\x01\x01\x01\x01\x01\x01\x01\x01\x01\x01\x01\x01\x01\x01\x01\x01\x01\x01\x01\x01\x01\x01\x01\x01\x01\x01\x01\x01\x01\x01\x01\x01\x01\x01\x01\x01\x01\x01\x01\x01\x01\x01\x01\x01\x01\x01\x01\x01\x01\x01\x01\x01\x01\x01\x01\x01\x01\x01\x01\x01\x01\x01\x01\x01\x01\x01\x01\x01\x01\x01\x01\x01\x01\x01\x01\x01\x01\x01\x01\x01\x01\x01\x01\x01'
p832
tp833
ba(lp834
g4
(g5
(dp835
g7
g8
(g9
(I0
tp836
g11
tp837
Rp838
(I1
(L96L
tp839
g18
I00
(lp840
g224
ag225
ag226
ag227
ag228
ag229
ag230
ag231
ag232
ag233
ag234
ag235
ag236
ag237
ag238
ag239
ag240
ag241
ag242
ag243
ag244
ag245
ag246
ag247
ag329
ag330
ag331
ag332
ag333
ag334
ag335
ag336
ag337
ag338
ag339
ag340
ag341
ag342
ag343
ag344
ag345
ag346
ag347
ag348
ag349
ag350
ag351
ag352
ag272
ag273
ag274
ag275
ag276
ag277
ag278
ag279
ag280
ag281
ag282
ag283
ag284
ag285
ag286
ag287
ag288
ag289
ag290
ag291
ag292
ag293
ag294
ag295
ag296
ag297
ag298
ag299
ag300
ag301
ag302
ag303
ag304
ag305
ag306
ag307
ag308
ag309
ag310
ag311
ag312
ag313
ag314
ag315
ag316
ag317
ag318
ag319
atp841
bsg143
g144
stp842
Rp843
a(dp844
g523
(dp845
g525
g817
sg526
(lp846
(dp847
g529
g530
(I0
I96
I1
tp848
Rp849
sg533
g830
sasstp850
bsg535
g536
sg143
g537
sbsg207
g478
(g479
g480
Ntp851
Rp852
(dp853
g484
g485
sg486
g478
(g487
g480
Ntp854
Rp855
((lp856
g4
(g5
(dp857
g7
g8
(g9
(I0
tp858
g11
tp859
Rp860
(I1
(L96L
tp861
g18
I00
(lp862
g224
ag225
ag226
ag227
ag228
ag229
ag230
ag231
ag232
ag233
ag234
ag235
ag236
ag237
ag238
ag239
ag240
ag241
ag242
ag243
ag244
ag245
ag246
ag247
ag329
ag330
ag331
ag332
ag333
ag334
ag335
ag336
ag337
ag338
ag339
ag340
ag341
ag342
ag343
ag344
ag345
ag346
ag347
ag348
ag349
ag350
ag351
ag352
ag248
ag249
ag250
ag251
ag252
ag253
ag254
ag255
ag256
ag257
ag258
ag259
ag260
ag261
ag262
ag263
ag264
ag265
ag266
ag267
ag268
ag269
ag270
ag271
ag272
ag273
ag274
ag275
ag276
ag277
ag278
ag279
ag280
ag281
ag282
ag283
ag284
ag285
ag286
ag287
ag288
ag289
ag290
ag291
ag292
ag293
ag294
ag295
atp863
bsg143
g144
stp864
Rp865
a(lp866
g8
(g9
(I0
tp867
g11
tp868
Rp869
(I1
(L96L
tp870
g507
I00
S'\x01\x01\x01\x01\x01\x01\x01\x01\x01\x01\x01\x01\x01\x01\x01\x01\x01\x01\x01\x01\x01\x01\x01\x01\x01\x01\x01\x01\x01\x01\x01\x01\x01\x01\x01\x01\x01\x01\x01\x01\x01\x01\x01\x01\x01\x01\x01\x01\x01\x01\x01\x01\x01\x01\x01\x01\x01\x01\x01\x01\x01\x01\x01\x01\x01\x01\x01\x01\x01\x01\x01\x01\x01\x01\x01\x01\x01\x01\x01\x01\x01\x01\x01\x01\x01\x01\x01\x01\x01\x01\x01\x01\x01\x01\x01\x01'
p871
tp872
ba(lp873
g4
(g5
(dp874
g7
g8
(g9
(I0
tp875
g11
tp876
Rp877
(I1
(L96L
tp878
g18
I00
(lp879
g224
ag225
ag226
ag227
ag228
ag229
ag230
ag231
ag232
ag233
ag234
ag235
ag236
ag237
ag238
ag239
ag240
ag241
ag242
ag243
ag244
ag245
ag246
ag247
ag329
ag330
ag331
ag332
ag333
ag334
ag335
ag336
ag337
ag338
ag339
ag340
ag341
ag342
ag343
ag344
ag345
ag346
ag347
ag348
ag349
ag350
ag351
ag352
ag248
ag249
ag250
ag251
ag252
ag253
ag254
ag255
ag256
ag257
ag258
ag259
ag260
ag261
ag262
ag263
ag264
ag265
ag266
ag267
ag268
ag269
ag270
ag271
ag272
ag273
ag274
ag275
ag276
ag277
ag278
ag279
ag280
ag281
ag282
ag283
ag284
ag285
ag286
ag287
ag288
ag289
ag290
ag291
ag292
ag293
ag294
ag295
atp880
bsg143
g144
stp881
Rp882
a(dp883
g523
(dp884
g525
g856
sg526
(lp885
(dp886
g529
g530
(I0
I96
I1
tp887
Rp888
sg533
g869
sasstp889
bsg535
g536
sg143
g537
sbssa(dp890
I1
(dp891
g3
g478
(g479
g480
Ntp892
Rp893
(dp894
g484
g485
sg486
g478
(g487
g480
Ntp895
Rp896
((lp897
g4
(g5
(dp898
g7
g8
(g9
(I0
tp899
g11
tp900
Rp901
(I1
(L30L
tp902
g18
I00
(lp903
g154
ag155
ag156
ag157
ag158
ag159
ag160
ag161
ag162
ag163
ag164
ag165
ag166
ag167
ag168
ag169
ag170
ag171
ag172
ag173
ag174
ag175
ag176
ag177
ag178
ag179
ag180
ag181
ag182
ag183
atp904
bsg143
g144
stp905
Rp906
a(lp907
g8
(g9
(I0
tp908
g11
tp909
Rp910
(I1
(L30L
tp911
g507
I00
S'\x01\x01\x01\x01\x01\x01\x01\x01\x01\x01\x01\x01\x01\x01\x01\x01\x01\x01\x01\x01\x01\x01\x01\x01\x01\x01\x01\x01\x01\x01'
p912
tp913
ba(lp914
g4
(g5
(dp915
g7
g8
(g9
(I0
tp916
g11
tp917
Rp918
(I1
(L30L
tp919
g18
I00
(lp920
g154
ag155
ag156
ag157
ag158
ag159
ag160
ag161
ag162
ag163
ag164
ag165
ag166
ag167
ag168
ag169
ag170
ag171
ag172
ag173
ag174
ag175
ag176
ag177
ag178
ag179
ag180
ag181
ag182
ag183
atp921
bsg143
g144
stp922
Rp923
a(dp924
g523
(dp925
g525
g897
sg526
(lp926
(dp927
g529
g530
(I0
I30
I1
tp928
Rp929
sg533
g910
sasstp930
bsg535
g536
sg143
g537
sbsg147
g478
(g479
g480
Ntp931
Rp932
(dp933
g484
g485
sg486
g478
(g487
g480
Ntp934
Rp935
((lp936
g4
(g5
(dp937
g7
g8
(g9
(I0
tp938
g11
tp939
Rp940
(I1
(L30L
tp941
g18
I00
(lp942
g22
ag23
ag24
ag25
ag26
ag27
ag28
ag29
ag30
ag31
ag32
ag33
ag34
ag35
ag36
ag37
ag38
ag39
ag40
ag41
ag42
ag43
ag44
ag45
ag46
ag47
ag48
ag49
ag50
ag51
atp943
bsg143
g144
stp944
Rp945
a(lp946
g8
(g9
(I0
tp947
g11
tp948
Rp949
(I1
(L30L
tp950
g507
I00
S'\x01\x01\x01\x01\x01\x01\x01\x01\x01\x01\x01\x01\x01\x01\x01\x01\x01\x01\x01\x01\x01\x01\x01\x01\x01\x01\x01\x01\x01\x01'
p951
tp952
ba(lp953
g4
(g5
(dp954
g7
g8
(g9
(I0
tp955
g11
tp956
Rp957
(I1
(L30L
tp958
g18
I00
(lp959
g22
ag23
ag24
ag25
ag26
ag27
ag28
ag29
ag30
ag31
ag32
ag33
ag34
ag35
ag36
ag37
ag38
ag39
ag40
ag41
ag42
ag43
ag44
ag45
ag46
ag47
ag48
ag49
ag50
ag51
atp960
bsg143
g144
stp961
Rp962
a(dp963
g523
(dp964
g525
g936
sg526
(lp965
(dp966
g529
g530
(I0
I30
I1
tp967
Rp968
sg533
g949
sasstp969
bsg535
g536
sg143
g537
sbsg187
g478
(g479
g480
Ntp970
Rp971
(dp972
g484
g485
sg486
g478
(g487
g480
Ntp973
Rp974
((lp975
g4
(g5
(dp976
g7
g8
(g9
(I0
tp977
g11
tp978
Rp979
(I1
(L30L
tp980
g18
I00
(lp981
g82
ag83
ag84
ag85
ag86
ag87
ag88
ag89
ag90
ag91
ag92
ag93
ag94
ag95
ag96
ag97
ag98
ag99
ag100
ag101
ag102
ag103
ag104
ag105
ag106
ag107
ag108
ag109
ag110
ag111
atp982
bsg143
g144
stp983
Rp984
a(lp985
g8
(g9
(I0
tp986
g11
tp987
Rp988
(I1
(L30L
tp989
g507
I00
S'\x01\x01\x01\x01\x01\x01\x01\x01\x01\x01\x01\x01\x01\x01\x01\x01\x01\x01\x01\x01\x01\x01\x01\x01\x01\x01\x01\x01\x01\x01'
p990
tp991
ba(lp992
g4
(g5
(dp993
g7
g8
(g9
(I0
tp994
g11
tp995
Rp996
(I1
(L30L
tp997
g18
I00
(lp998
g82
ag83
ag84
ag85
ag86
ag87
ag88
ag89
ag90
ag91
ag92
ag93
ag94
ag95
ag96
ag97
ag98
ag99
ag100
ag101
ag102
ag103
ag104
ag105
ag106
ag107
ag108
ag109
ag110
ag111
atp999
bsg143
g144
stp1000
Rp1001
a(dp1002
g523
(dp1003
g525
g975
sg526
(lp1004
(dp1005
g529
g530
(I0
I30
I1
tp1006
Rp1007
sg533
g988
sasstp1008
bsg535
g536
sg143
g537
sbsg197
g478
(g479
g480
Ntp1009
Rp1010
(dp1011
g484
g485
sg486
g478
(g487
g480
Ntp1012
Rp1013
((lp1014
g4
(g5
(dp1015
g7
g8
(g9
(I0
tp1016
g11
tp1017
Rp1018
(I1
(L30L
tp1019
g18
I00
(lp1020
g52
ag53
ag54
ag55
ag56
ag57
ag58
ag59
ag60
ag61
ag62
ag63
ag64
ag65
ag66
ag67
ag68
ag69
ag70
ag71
ag72
ag73
ag74
ag75
ag76
ag77
ag78
ag79
ag80
ag81
atp1021
bsg143
g144
stp1022
Rp1023
a(lp1024
g8
(g9
(I0
tp1025
g11
tp1026
Rp1027
(I1
(L30L
tp1028
g507
I00
S'\x01\x01\x01\x01\x01\x01\x01\x01\x01\x01\x01\x01\x01\x01\x01\x01\x01\x01\x01\x01\x01\x01\x01\x01\x01\x01\x01\x01\x01\x01'
p1029
tp1030
ba(lp1031
g4
(g5
(dp1032
g7
g8
(g9
(I0
tp1033
g11
tp1034
Rp1035
(I1
(L30L
tp1036
g18
I00
(lp1037
g52
ag53
ag54
ag55
ag56
ag57
ag58
ag59
ag60
ag61
ag62
ag63
ag64
ag65
ag66
ag67
ag68
ag69
ag70
ag71
ag72
ag73
ag74
ag75
ag76
ag77
ag78
ag79
ag80
ag81
atp1038
bsg143
g144
stp1039
Rp1040
a(dp1041
g523
(dp1042
g525
g1014
sg526
(lp1043
(dp1044
g529
g530
(I0
I30
I1
tp1045
Rp1046
sg533
g1027
sasstp1047
bsg535
g536
sg143
g537
sbsg207
g478
(g479
g480
Ntp1048
Rp1049
(dp1050
g484
g485
sg486
g478
(g487
g480
Ntp1051
Rp1052
((lp1053
g4
(g5
(dp1054
g7
g8
(g9
(I0
tp1055
g11
tp1056
Rp1057
(I1
(L30L
tp1058
g18
I00
(lp1059
g112
ag113
ag114
ag115
ag116
ag117
ag118
ag119
ag120
ag121
ag122
ag123
ag124
ag125
ag126
ag127
ag128
ag129
ag130
ag131
ag132
ag133
ag134
ag135
ag136
ag137
ag138
ag139
ag140
ag141
atp1060
bsg143
g144
stp1061
Rp1062
a(lp1063
g8
(g9
(I0
tp1064
g11
tp1065
Rp1066
(I1
(L30L
tp1067
g507
I00
S'\x01\x01\x01\x01\x01\x01\x01\x01\x01\x01\x01\x01\x01\x01\x01\x01\x01\x01\x01\x01\x01\x01\x01\x01\x01\x01\x01\x01\x01\x01'
p1068
tp1069
ba(lp1070
g4
(g5
(dp1071
g7
g8
(g9
(I0
tp1072
g11
tp1073
Rp1074
(I1
(L30L
tp1075
g18
I00
(lp1076
g112
ag113
ag114
ag115
ag116
ag117
ag118
ag119
ag120
ag121
ag122
ag123
ag124
ag125
ag126
ag127
ag128
ag129
ag130
ag131
ag132
ag133
ag134
ag135
ag136
ag137
ag138
ag139
ag140
ag141
atp1077
bsg143
g144
stp1078
Rp1079
a(dp1080
g523
(dp1081
g525
g1053
sg526
(lp1082
(dp1083
g529
g530
(I0
I30
I1
tp1084
Rp1085
sg533
g1066
sasstp1086
bsg535
g536
sg143
g537
sbssI2
(dp1087
g3
g478
(g479
g480
Ntp1088
Rp1089
(dp1090
g484
g485
sg486
g478
(g487
g480
Ntp1091
Rp1092
((lp1093
g4
(g5
(dp1094
g7
g8
(g9
(I0
tp1095
g11
tp1096
Rp1097
(I1
(L24L
tp1098
g18
I00
(lp1099
g329
ag330
ag331
ag332
ag333
ag334
ag335
ag336
ag337
ag338
ag339
ag340
ag341
ag342
ag343
ag344
ag345
ag346
ag347
ag348
ag349
ag350
ag351
ag352
atp1100
bsg143
g144
stp1101
Rp1102
a(lp1103
g8
(g9
(I0
tp1104
g11
tp1105
Rp1106
(I1
(L24L
tp1107
g507
I00
S'\x01\x01\x01\x01\x01\x01\x01\x01\x01\x01\x01\x01\x01\x01\x01\x01\x01\x01\x01\x01\x01\x01\x01\x01'
p1108
tp1109
ba(lp1110
g4
(g5
(dp1111
g7
g8
(g9
(I0
tp1112
g11
tp1113
Rp1114
(I1
(L24L
tp1115
g18
I00
(lp1116
g329
ag330
ag331
ag332
ag333
ag334
ag335
ag336
ag337
ag338
ag339
ag340
ag341
ag342
ag343
ag344
ag345
ag346
ag347
ag348
ag349
ag350
ag351
ag352
atp1117
bsg143
g144
stp1118
Rp1119
a(dp1120
g523
(dp1121
g525
g1093
sg526
(lp1122
(dp1123
g529
g530
(I0
I24
I1
tp1124
Rp1125
sg533
g1106
sasstp1126
bsg535
g536
sg143
g537
sbsg147
g478
(g479
g480
Ntp1127
Rp1128
(dp1129
g484
g485
sg486
g478
(g487
g480
Ntp1130
Rp1131
((lp1132
g4
(g5
(dp1133
g7
g8
(g9
(I0
tp1134
g11
tp1135
Rp1136
(I1
(L24L
tp1137
g18
I00
(lp1138
g224
ag225
ag226
ag227
ag228
ag229
ag230
ag231
ag232
ag233
ag234
ag235
ag236
ag237
ag238
ag239
ag240
ag241
ag242
ag243
ag244
ag245
ag246
ag247
atp1139
bsg143
g144
stp1140
Rp1141
a(lp1142
g8
(g9
(I0
tp1143
g11
tp1144
Rp1145
(I1
(L24L
tp1146
g507
I00
S'\x01\x01\x01\x01\x01\x01\x01\x01\x01\x01\x01\x01\x01\x01\x01\x01\x01\x01\x01\x01\x01\x01\x01\x01'
p1147
tp1148
ba(lp1149
g4
(g5
(dp1150
g7
g8
(g9
(I0
tp1151
g11
tp1152
Rp1153
(I1
(L24L
tp1154
g18
I00
(lp1155
g224
ag225
ag226
ag227
ag228
ag229
ag230
ag231
ag232
ag233
ag234
ag235
ag236
ag237
ag238
ag239
ag240
ag241
ag242
ag243
ag244
ag245
ag246
ag247
atp1156
bsg143
g144
stp1157
Rp1158
a(dp1159
g523
(dp1160
g525
g1132
sg526
(lp1161
(dp1162
g529
g530
(I0
I24
I1
tp1163
Rp1164
sg533
g1145
sasstp1165
bsg535
g536
sg143
g537
sbsg187
g478
(g479
g480
Ntp1166
Rp1167
(dp1168
g484
g485
sg486
g478
(g487
g480
Ntp1169
Rp1170
((lp1171
g4
(g5
(dp1172
g7
g8
(g9
(I0
tp1173
g11
tp1174
Rp1175
(I1
(L24L
tp1176
g18
I00
(lp1177
g272
ag273
ag274
ag275
ag276
ag277
ag278
ag279
ag280
ag281
ag282
ag283
ag284
ag285
ag286
ag287
ag288
ag289
ag290
ag291
ag292
ag293
ag294
ag295
atp1178
bsg143
g144
stp1179
Rp1180
a(lp1181
g8
(g9
(I0
tp1182
g11
tp1183
Rp1184
(I1
(L24L
tp1185
g507
I00
S'\x01\x01\x01\x01\x01\x01\x01\x01\x01\x01\x01\x01\x01\x01\x01\x01\x01\x01\x01\x01\x01\x01\x01\x01'
p1186
tp1187
ba(lp1188
g4
(g5
(dp1189
g7
g8
(g9
(I0
tp1190
g11
tp1191
Rp1192
(I1
(L24L
tp1193
g18
I00
(lp1194
g272
ag273
ag274
ag275
ag276
ag277
ag278
ag279
ag280
ag281
ag282
ag283
ag284
ag285
ag286
ag287
ag288
ag289
ag290
ag291
ag292
ag293
ag294
ag295
atp1195
bsg143
g144
stp1196
Rp1197
a(dp1198
g523
(dp1199
g525
g1171
sg526
(lp1200
(dp1201
g529
g530
(I0
I24
I1
tp1202
Rp1203
sg533
g1184
sasstp1204
bsg535
g536
sg143
g537
sbsg197
g478
(g479
g480
Ntp1205
Rp1206
(dp1207
g484
g485
sg486
g478
(g487
g480
Ntp1208
Rp1209
((lp1210
g4
(g5
(dp1211
g7
g8
(g9
(I0
tp1212
g11
tp1213
Rp1214
(I1
(L24L
tp1215
g18
I00
(lp1216
g248
ag249
ag250
ag251
ag252
ag253
ag254
ag255
ag256
ag257
ag258
ag259
ag260
ag261
ag262
ag263
ag264
ag265
ag266
ag267
ag268
ag269
ag270
ag271
atp1217
bsg143
g144
stp1218
Rp1219
a(lp1220
g8
(g9
(I0
tp1221
g11
tp1222
Rp1223
(I1
(L24L
tp1224
g507
I00
S'\x01\x01\x01\x01\x01\x01\x01\x01\x01\x01\x01\x01\x01\x01\x01\x01\x01\x01\x01\x01\x01\x01\x01\x01'
p1225
tp1226
ba(lp1227
g4
(g5
(dp1228
g7
g8
(g9
(I0
tp1229
g11
tp1230
Rp1231
(I1
(L24L
tp1232
g18
I00
(lp1233
g248
ag249
ag250
ag251
ag252
ag253
ag254
ag255
ag256
ag257
ag258
ag259
ag260
ag261
ag262
ag263
ag264
ag265
ag266
ag267
ag268
ag269
ag270
ag271
atp1234
bsg143
g144
stp1235
Rp1236
a(dp1237
g523
(dp1238
g525
g1210
sg526
(lp1239
(dp1240
g529
g530
(I0
I24
I1
tp1241
Rp1242
sg533
g1223
sasstp1243
bsg535
g536
sg143
g537
sbsg207
g478
(g479
g480
Ntp1244
Rp1245
(dp1246
g484
g485
sg486
g478
(g487
g480
Ntp1247
Rp1248
((lp1249
g4
(g5
(dp1250
g7
g8
(g9
(I0
tp1251
g11
tp1252
Rp1253
(I1
(L24L
tp1254
g18
I00
(lp1255
g296
ag297
ag298
ag299
ag300
ag301
ag302
ag303
ag304
ag305
ag306
ag307
ag308
ag309
ag310
ag311
ag312
ag313
ag314
ag315
ag316
ag317
ag318
ag319
atp1256
bsg143
g144
stp1257
Rp1258
a(lp1259
g8
(g9
(I0
tp1260
g11
tp1261
Rp1262
(I1
(L24L
tp1263
g507
I00
S'\x01\x01\x01\x01\x01\x01\x01\x01\x01\x01\x01\x01\x01\x01\x01\x01\x01\x01\x01\x01\x01\x01\x01\x01'
p1264
tp1265
ba(lp1266
g4
(g5
(dp1267
g7
g8
(g9
(I0
tp1268
g11
tp1269
Rp1270
(I1
(L24L
tp1271
g18
I00
(lp1272
g296
ag297
ag298
ag299
ag300
ag301
ag302
ag303
ag304
ag305
ag306
ag307
ag308
ag309
ag310
ag311
ag312
ag313
ag314
ag315
ag316
ag317
ag318
ag319
atp1273
bsg143
g144
stp1274
Rp1275
a(dp1276
g523
(dp1277
g525
g1249
sg526
(lp1278
(dp1279
g529
g530
(I0
I24
I1
tp1280
Rp1281
sg533
g1262
sasstp1282
bsg535
g536
sg143
g537
sbssa(dp1283
I1
(dp1284
g3
g4
(g5
(dp1285
g7
g8
(g9
(I0
tp1286
g11
tp1287
Rp1288
(I1
(L96L
tp1289
g18
I00
(lp1290
S'IDD71'
p1291
aS'IDD70'
p1292
aS'IDD76'
p1293
aS'IDD131'
p1294
aS'IDD130'
p1295
aS'IDD132'
p1296
aS'IDD134'
p1297
aS'IDD138'
p1298
aS'IDD238'
p1299
aS'IDD236'
p1300
aS'IDD234'
p1301
aS'IDD232'
p1302
aS'IDD231'
p1303
aS'IDD62'
p1304
aS'IDD60'
p1305
aS'IDD66'
p1306
aS'IDD68'
p1307
aS'IDD108'
p1308
aS'IDD109'
p1309
aS'IDD104'
p1310
aS'IDD105'
p1311
aS'IDD106'
p1312
aS'IDD102'
p1313
aS'IDD187'
p1314
aS'IDD47'
p1315
aS'IDD205'
p1316
aS'IDD204'
p1317
aS'IDD203'
p1318
aS'IDD202'
p1319
aS'IDD200'
p1320
aS'IDD209'
p1321
aS'IDD164'
p1322
aS'IDD162'
p1323
aS'IDD160'
p1324
aS'IDD161'
p1325
aS'IDD38'
p1326
aS'IDD35'
p1327
aS'IDD34'
p1328
aS'IDD37'
p1329
aS'IDD36'
p1330
aS'IDD31'
p1331
aS'IDD270'
p1332
aS'IDD179'
p1333
aS'IDD178'
p1334
aS'IDD177'
p1335
aS'IDD176'
p1336
aS'IDD170'
p1337
aS'IDD173'
p1338
aS'IDD172'
p1339
aS'IDD83'
p1340
aS'IDD120'
p1341
aS'IDD29'
p1342
aS'IDD21'
p1343
aS'IDD263'
p1344
aS'IDD262'
p1345
aS'IDD265'
p1346
aS'IDD148'
p1347
aS'IDD149'
p1348
aS'IDD141'
p1349
aS'IDD143'
p1350
aS'IDD145'
p1351
aS'IDD146'
p1352
aS'IDD147'
p1353
aS'IDD81'
p1354
aS'IDD18'
p1355
aS'IDD10'
p1356
aS'IDD17'
p1357
aS'IDD14'
p1358
aS'IDD93'
p1359
aS'IDD92'
p1360
aS'IDD90'
p1361
aS'IDD258'
p1362
aS'IDD259'
p1363
aS'IDD95'
p1364
aS'IDD94'
p1365
aS'IDD98'
p1366
aS'IDD250'
p1367
aS'IDD251'
p1368
aS'IDD253'
p1369
aS'IDD9'
p1370
aS'IDD8'
p1371
aS'IDD7'
p1372
aS'IDD3'
p1373
aS'IDD1'
p1374
aS'IDD157'
p1375
aS'IDD96'
p1376
aS'IDD122'
p1377
aS'IDD123'
p1378
aS'IDD249'
p1379
aS'IDD121'
p1380
aS'IDD127'
p1381
aS'IDD241'
p1382
aS'IDD247'
p1383
aS'IDD246'
p1384
aS'IDD82'
p1385
aS'IDD244'
p1386
atp1387
bsg143
Nstp1388
Rp1389
sg147
g4
(g5
(dp1390
g7
g8
(g9
(I0
tp1391
g11
tp1392
Rp1393
(I1
(L96L
tp1394
g18
I00
(lp1395
S'IDD228'
p1396
aS'IDD182'
p1397
aS'IDD183'
p1398
aS'IDD224'
p1399
aS'IDD227'
p1400
aS'IDD221'
p1401
aS'IDD222'
p1402
aS'IDD59'
p1403
aS'IDD57'
p1404
aS'IDD51'
p1405
aS'IDD50'
p1406
aS'IDD118'
p1407
aS'IDD113'
p1408
aS'IDD111'
p1409
aS'IDD117'
p1410
aS'IDD192'
p1411
aS'IDD190'
p1412
aS'IDD194'
p1413
aS'IDD211'
p1414
aS'IDD214'
p1415
aS'IDD48'
p1416
aS'IDD49'
p1417
aS'IDD41'
p1418
aS'IDD45'
p1419
ag1315
ag1316
ag1317
ag1318
ag1319
ag1320
ag1321
ag1322
ag1323
ag1324
ag1325
ag1326
ag1327
ag1328
ag1329
ag1330
ag1331
ag1332
ag1333
ag1334
ag1335
ag1336
ag1337
ag1338
ag1339
ag1340
ag1341
ag1342
ag1343
ag1344
ag1345
ag1346
ag1347
ag1348
ag1349
ag1350
ag1351
ag1352
ag1353
ag1354
ag1355
ag1356
ag1357
ag1358
ag1359
ag1360
ag1361
ag1362
ag1363
ag1364
ag1365
ag1366
ag1367
ag1368
ag1369
ag1370
ag1371
ag1372
ag1373
ag1374
ag1375
ag1376
ag1377
ag1378
ag1379
ag1380
ag1381
ag1382
ag1383
ag1384
ag1385
ag1386
atp1420
bsg143
Nstp1421
Rp1422
sg187
g4
(g5
(dp1423
g7
g8
(g9
(I0
tp1424
g11
tp1425
Rp1426
(I1
(L96L
tp1427
g18
I00
(lp1428
g1291
ag1292
ag1293
ag1294
ag1295
ag1296
ag1297
ag1298
ag1299
ag1300
ag1301
ag1302
ag1303
ag1304
ag1305
ag1306
ag1307
ag1308
ag1309
ag1310
ag1311
ag1312
ag1313
ag1314
ag1396
ag1397
ag1398
ag1399
ag1400
ag1401
ag1402
ag1403
ag1404
ag1405
ag1406
ag1407
ag1408
ag1409
ag1410
ag1411
ag1412
ag1413
ag1414
ag1415
ag1416
ag1417
ag1418
ag1419
ag1315
ag1316
ag1317
ag1318
ag1319
ag1320
ag1321
ag1322
ag1323
ag1324
ag1325
ag1326
ag1327
ag1328
ag1329
ag1330
ag1331
ag1332
ag1333
ag1334
ag1335
ag1336
ag1337
ag1338
ag1363
ag1364
ag1365
ag1366
ag1367
ag1368
ag1369
ag1370
ag1371
ag1372
ag1373
ag1374
ag1375
ag1376
ag1377
ag1378
ag1379
ag1380
ag1381
ag1382
ag1383
ag1384
ag1385
ag1386
atp1429
bsg143
Nstp1430
Rp1431
sg197
g4
(g5
(dp1432
g7
g8
(g9
(I0
tp1433
g11
tp1434
Rp1435
(I1
(L96L
tp1436
g18
I00
(lp1437
g1291
ag1292
ag1293
ag1294
ag1295
ag1296
ag1297
ag1298
ag1299
ag1300
ag1301
ag1302
ag1303
ag1304
ag1305
ag1306
ag1307
ag1308
ag1309
ag1310
ag1311
ag1312
ag1313
ag1314
ag1396
ag1397
ag1398
ag1399
ag1400
ag1401
ag1402
ag1403
ag1404
ag1405
ag1406
ag1407
ag1408
ag1409
ag1410
ag1411
ag1412
ag1413
ag1414
ag1415
ag1416
ag1417
ag1418
ag1419
ag1339
ag1340
ag1341
ag1342
ag1343
ag1344
ag1345
ag1346
ag1347
ag1348
ag1349
ag1350
ag1351
ag1352
ag1353
ag1354
ag1355
ag1356
ag1357
ag1358
ag1359
ag1360
ag1361
ag1362
ag1363
ag1364
ag1365
ag1366
ag1367
ag1368
ag1369
ag1370
ag1371
ag1372
ag1373
ag1374
ag1375
ag1376
ag1377
ag1378
ag1379
ag1380
ag1381
ag1382
ag1383
ag1384
ag1385
ag1386
atp1438
bsg143
Nstp1439
Rp1440
sg207
g4
(g5
(dp1441
g7
g8
(g9
(I0
tp1442
g11
tp1443
Rp1444
(I1
(L96L
tp1445
g18
I00
(lp1446
g1291
ag1292
ag1293
ag1294
ag1295
ag1296
ag1297
ag1298
ag1299
ag1300
ag1301
ag1302
ag1303
ag1304
ag1305
ag1306
ag1307
ag1308
ag1309
ag1310
ag1311
ag1312
ag1313
ag1314
ag1396
ag1397
ag1398
ag1399
ag1400
ag1401
ag1402
ag1403
ag1404
ag1405
ag1406
ag1407
ag1408
ag1409
ag1410
ag1411
ag1412
ag1413
ag1414
ag1415
ag1416
ag1417
ag1418
ag1419
ag1315
ag1316
ag1317
ag1318
ag1319
ag1320
ag1321
ag1322
ag1323
ag1324
ag1325
ag1326
ag1327
ag1328
ag1329
ag1330
ag1331
ag1332
ag1333
ag1334
ag1335
ag1336
ag1337
ag1338
ag1339
ag1340
ag1341
ag1342
ag1343
ag1344
ag1345
ag1346
ag1347
ag1348
ag1349
ag1350
ag1351
ag1352
ag1353
ag1354
ag1355
ag1356
ag1357
ag1358
ag1359
ag1360
ag1361
ag1362
atp1447
bsg143
Nstp1448
Rp1449
ssI2
(dp1450
g3
g4
(g5
(dp1451
g7
g8
(g9
(I0
tp1452
g11
tp1453
Rp1454
(I1
(L120L
tp1455
g18
I00
(lp1456
S'IDD73'
p1457
aS'IDD72'
p1458
aS'IDD75'
p1459
aS'IDD74'
p1460
aS'IDD77'
p1461
aS'IDD79'
p1462
aS'IDD78'
p1463
aS'IDD159'
p1464
aS'IDD218'
p1465
aS'IDD133'
p1466
aS'IDD135'
p1467
aS'IDD137'
p1468
aS'IDD136'
p1469
aS'IDD139'
p1470
aS'IDD239'
p1471
aS'IDD237'
p1472
aS'IDD235'
p1473
aS'IDD233'
p1474
aS'IDD230'
p1475
aS'IDD63'
p1476
aS'IDD61'
p1477
aS'IDD67'
p1478
aS'IDD64'
p1479
aS'IDD65'
p1480
aS'IDD69'
p1481
aS'IDD88'
p1482
aS'IDD199'
p1483
aS'IDD213'
p1484
aS'IDD107'
p1485
aS'IDD100'
p1486
aS'IDD210'
p1487
aS'IDD229'
p1488
aS'IDD212'
p1489
aS'IDD198'
p1490
aS'IDD215'
p1491
aS'IDD216'
p1492
aS'IDD217'
p1493
aS'IDD40'
p1494
aS'IDD42'
p1495
aS'IDD43'
p1496
aS'IDD44'
p1497
aS'IDD46'
p1498
aS'IDD207'
p1499
aS'IDD206'
p1500
aS'IDD201'
p1501
aS'IDD208'
p1502
aS'IDD168'
p1503
aS'IDD169'
p1504
aS'IDD166'
p1505
aS'IDD167'
p1506
aS'IDD165'
p1507
aS'IDD163'
p1508
aS'IDD39'
p1509
aS'IDD30'
p1510
aS'IDD33'
p1511
aS'IDD32'
p1512
aS'IDD87'
p1513
aS'IDD175'
p1514
aS'IDD174'
p1515
aS'IDD171'
p1516
aS'IDD28'
p1517
aS'IDD26'
p1518
aS'IDD27'
p1519
aS'IDD24'
p1520
aS'IDD25'
p1521
aS'IDD22'
p1522
aS'IDD23'
p1523
aS'IDD20'
p1524
aS'IDD261'
p1525
aS'IDD260'
p1526
aS'IDD264'
p1527
aS'IDD267'
p1528
aS'IDD266'
p1529
aS'IDD269'
p1530
aS'IDD268'
p1531
aS'IDD84'
p1532
aS'IDD85'
p1533
aS'IDD140'
p1534
aS'IDD142'
p1535
aS'IDD144'
p1536
aS'IDD86'
p1537
aS'IDD129'
p1538
aS'IDD189'
p1539
aS'IDD19'
p1540
aS'IDD13'
p1541
aS'IDD12'
p1542
aS'IDD11'
p1543
aS'IDD16'
p1544
aS'IDD15'
p1545
aS'IDD156'
p1546
aS'IDD91'
p1547
aS'IDD154'
p1548
aS'IDD97'
p1549
aS'IDD152'
p1550
aS'IDD151'
p1551
aS'IDD150'
p1552
aS'IDD254'
p1553
aS'IDD255'
p1554
aS'IDD99'
p1555
aS'IDD257'
p1556
aS'IDD252'
p1557
aS'IDD158'
p1558
aS'IDD6'
p1559
aS'IDD5'
p1560
aS'IDD4'
p1561
aS'IDD2'
p1562
aS'IDD155'
p1563
aS'IDD153'
p1564
aS'IDD248'
p1565
aS'IDD126'
p1566
aS'IDD89'
p1567
aS'IDD124'
p1568
aS'IDD125'
p1569
aS'IDD243'
p1570
aS'IDD242'
p1571
aS'IDD128'
p1572
aS'IDD240'
p1573
aS'IDD80'
p1574
aS'IDD245'
p1575
aS'IDD256'
p1576
atp1577
bsg143
Nstp1578
Rp1579
sg147
g4
(g5
(dp1580
g7
g8
(g9
(I0
tp1581
g11
tp1582
Rp1583
(I1
(L120L
tp1584
g18
I00
(lp1585
S'IDD101'
p1586
aS'IDD103'
p1587
aS'IDD184'
p1588
aS'IDD185'
p1589
aS'IDD186'
p1590
aS'IDD180'
p1591
aS'IDD181'
p1592
aS'IDD225'
p1593
aS'IDD226'
p1594
aS'IDD188'
p1595
aS'IDD220'
p1596
aS'IDD223'
p1597
aS'IDD58'
p1598
aS'IDD56'
p1599
aS'IDD55'
p1600
aS'IDD54'
p1601
aS'IDD53'
p1602
aS'IDD52'
p1603
aS'IDD119'
p1604
aS'IDD112'
p1605
aS'IDD110'
p1606
aS'IDD116'
p1607
aS'IDD115'
p1608
aS'IDD114'
p1609
aS'IDD193'
p1610
aS'IDD219'
p1611
aS'IDD191'
p1612
aS'IDD197'
p1613
aS'IDD196'
p1614
aS'IDD195'
p1615
ag1487
ag1488
ag1489
ag1490
ag1491
ag1492
ag1493
ag1494
ag1495
ag1496
ag1497
ag1498
ag1499
ag1500
ag1501
ag1502
ag1503
ag1504
ag1505
ag1506
ag1507
ag1508
ag1509
ag1510
ag1511
ag1512
ag1513
ag1514
ag1515
ag1516
ag1517
ag1518
ag1519
ag1520
ag1521
ag1522
ag1523
ag1524
ag1525
ag1526
ag1527
ag1528
ag1529
ag1530
ag1531
ag1532
ag1533
ag1534
ag1535
ag1536
ag1537
ag1538
ag1539
ag1540
ag1541
ag1542
ag1543
ag1544
ag1545
ag1546
ag1547
ag1548
ag1549
ag1550
ag1551
ag1552
ag1553
ag1554
ag1555
ag1556
ag1557
ag1558
ag1559
ag1560
ag1561
ag1562
ag1563
ag1564
ag1565
ag1566
ag1567
ag1568
ag1569
ag1570
ag1571
ag1572
ag1573
ag1574
ag1575
ag1576
atp1616
bsg143
Nstp1617
Rp1618
sg187
g4
(g5
(dp1619
g7
g8
(g9
(I0
tp1620
g11
tp1621
Rp1622
(I1
(L120L
tp1623
g18
I00
(lp1624
g1457
ag1458
ag1459
ag1460
ag1461
ag1462
ag1463
ag1464
ag1465
ag1466
ag1467
ag1468
ag1469
ag1470
ag1471
ag1472
ag1473
ag1474
ag1475
ag1476
ag1477
ag1478
ag1479
ag1480
ag1481
ag1482
ag1483
ag1484
ag1485
ag1486
ag1586
ag1587
ag1588
ag1589
ag1590
ag1591
ag1592
ag1593
ag1594
ag1595
ag1596
ag1597
ag1598
ag1599
ag1600
ag1601
ag1602
ag1603
ag1604
ag1605
ag1606
ag1607
ag1608
ag1609
ag1610
ag1611
ag1612
ag1613
ag1614
ag1615
ag1487
ag1488
ag1489
ag1490
ag1491
ag1492
ag1493
ag1494
ag1495
ag1496
ag1497
ag1498
ag1499
ag1500
ag1501
ag1502
ag1503
ag1504
ag1505
ag1506
ag1507
ag1508
ag1509
ag1510
ag1511
ag1512
ag1513
ag1514
ag1515
ag1516
ag1547
ag1548
ag1549
ag1550
ag1551
ag1552
ag1553
ag1554
ag1555
ag1556
ag1557
ag1558
ag1559
ag1560
ag1561
ag1562
ag1563
ag1564
ag1565
ag1566
ag1567
ag1568
ag1569
ag1570
ag1571
ag1572
ag1573
ag1574
ag1575
ag1576
atp1625
bsg143
Nstp1626
Rp1627
sg197
g4
(g5
(dp1628
g7
g8
(g9
(I0
tp1629
g11
tp1630
Rp1631
(I1
(L120L
tp1632
g18
I00
(lp1633
g1457
ag1458
ag1459
ag1460
ag1461
ag1462
ag1463
ag1464
ag1465
ag1466
ag1467
ag1468
ag1469
ag1470
ag1471
ag1472
ag1473
ag1474
ag1475
ag1476
ag1477
ag1478
ag1479
ag1480
ag1481
ag1482
ag1483
ag1484
ag1485
ag1486
ag1586
ag1587
ag1588
ag1589
ag1590
ag1591
ag1592
ag1593
ag1594
ag1595
ag1596
ag1597
ag1598
ag1599
ag1600
ag1601
ag1602
ag1603
ag1604
ag1605
ag1606
ag1607
ag1608
ag1609
ag1610
ag1611
ag1612
ag1613
ag1614
ag1615
ag1517
ag1518
ag1519
ag1520
ag1521
ag1522
ag1523
ag1524
ag1525
ag1526
ag1527
ag1528
ag1529
ag1530
ag1531
ag1532
ag1533
ag1534
ag1535
ag1536
ag1537
ag1538
ag1539
ag1540
ag1541
ag1542
ag1543
ag1544
ag1545
ag1546
ag1547
ag1548
ag1549
ag1550
ag1551
ag1552
ag1553
ag1554
ag1555
ag1556
ag1557
ag1558
ag1559
ag1560
ag1561
ag1562
ag1563
ag1564
ag1565
ag1566
ag1567
ag1568
ag1569
ag1570
ag1571
ag1572
ag1573
ag1574
ag1575
ag1576
atp1634
bsg143
Nstp1635
Rp1636
sg207
g4
(g5
(dp1637
g7
g8
(g9
(I0
tp1638
g11
tp1639
Rp1640
(I1
(L120L
tp1641
g18
I00
(lp1642
g1457
ag1458
ag1459
ag1460
ag1461
ag1462
ag1463
ag1464
ag1465
ag1466
ag1467
ag1468
ag1469
ag1470
ag1471
ag1472
ag1473
ag1474
ag1475
ag1476
ag1477
ag1478
ag1479
ag1480
ag1481
ag1482
ag1483
ag1484
ag1485
ag1486
ag1586
ag1587
ag1588
ag1589
ag1590
ag1591
ag1592
ag1593
ag1594
ag1595
ag1596
ag1597
ag1598
ag1599
ag1600
ag1601
ag1602
ag1603
ag1604
ag1605
ag1606
ag1607
ag1608
ag1609
ag1610
ag1611
ag1612
ag1613
ag1614
ag1615
ag1487
ag1488
ag1489
ag1490
ag1491
ag1492
ag1493
ag1494
ag1495
ag1496
ag1497
ag1498
ag1499
ag1500
ag1501
ag1502
ag1503
ag1504
ag1505
ag1506
ag1507
ag1508
ag1509
ag1510
ag1511
ag1512
ag1513
ag1514
ag1515
ag1516
ag1517
ag1518
ag1519
ag1520
ag1521
ag1522
ag1523
ag1524
ag1525
ag1526
ag1527
ag1528
ag1529
ag1530
ag1531
ag1532
ag1533
ag1534
ag1535
ag1536
ag1537
ag1538
ag1539
ag1540
ag1541
ag1542
ag1543
ag1544
ag1545
ag1546
atp1643
bsg143
Nstp1644
Rp1645
ssa(dp1646
I1
(dp1647
g3
g4
(g5
(dp1648
g7
g8
(g9
(I0
tp1649
g11
tp1650
Rp1651
(I1
(L24L
tp1652
g18
I00
(lp1653
g1396
ag1397
ag1398
ag1399
ag1400
ag1401
ag1402
ag1403
ag1404
ag1405
ag1406
ag1407
ag1408
ag1409
ag1410
ag1411
ag1412
ag1413
ag1414
ag1415
ag1416
ag1417
ag1418
ag1419
atp1654
bsg143
Nstp1655
Rp1656
sg147
g4
(g5
(dp1657
g7
g8
(g9
(I0
tp1658
g11
tp1659
Rp1660
(I1
(L24L
tp1661
g18
I00
(lp1662
g1291
ag1292
ag1293
ag1294
ag1295
ag1296
ag1297
ag1298
ag1299
ag1300
ag1301
ag1302
ag1303
ag1304
ag1305
ag1306
ag1307
ag1308
ag1309
ag1310
ag1311
ag1312
ag1313
ag1314
atp1663
bsg143
Nstp1664
Rp1665
sg187
g4
(g5
(dp1666
g7
g8
(g9
(I0
tp1667
g11
tp1668
Rp1669
(I1
(L24L
tp1670
g18
I00
(lp1671
g1339
ag1340
ag1341
ag1342
ag1343
ag1344
ag1345
ag1346
ag1347
ag1348
ag1349
ag1350
ag1351
ag1352
ag1353
ag1354
ag1355
ag1356
ag1357
ag1358
ag1359
ag1360
ag1361
ag1362
atp1672
bsg143
Nstp1673
Rp1674
sg197
g4
(g5
(dp1675
g7
g8
(g9
(I0
tp1676
g11
tp1677
Rp1678
(I1
(L24L
tp1679
g18
I00
(lp1680
g1315
ag1316
ag1317
ag1318
ag1319
ag1320
ag1321
ag1322
ag1323
ag1324
ag1325
ag1326
ag1327
ag1328
ag1329
ag1330
ag1331
ag1332
ag1333
ag1334
ag1335
ag1336
ag1337
ag1338
atp1681
bsg143
Nstp1682
Rp1683
sg207
g4
(g5
(dp1684
g7
g8
(g9
(I0
tp1685
g11
tp1686
Rp1687
(I1
(L24L
tp1688
g18
I00
(lp1689
g1363
ag1364
ag1365
ag1366
ag1367
ag1368
ag1369
ag1370
ag1371
ag1372
ag1373
ag1374
ag1375
ag1376
ag1377
ag1378
ag1379
ag1380
ag1381
ag1382
ag1383
ag1384
ag1385
ag1386
atp1690
bsg143
Nstp1691
Rp1692
ssI2
(dp1693
g3
g4
(g5
(dp1694
g7
g8
(g9
(I0
tp1695
g11
tp1696
Rp1697
(I1
(L30L
tp1698
g18
I00
(lp1699
g1586
ag1587
ag1588
ag1589
ag1590
ag1591
ag1592
ag1593
ag1594
ag1595
ag1596
ag1597
ag1598
ag1599
ag1600
ag1601
ag1602
ag1603
ag1604
ag1605
ag1606
ag1607
ag1608
ag1609
ag1610
ag1611
ag1612
ag1613
ag1614
ag1615
atp1700
bsg143
Nstp1701
Rp1702
sg147
g4
(g5
(dp1703
g7
g8
(g9
(I0
tp1704
g11
tp1705
Rp1706
(I1
(L30L
tp1707
g18
I00
(lp1708
g1457
ag1458
ag1459
ag1460
ag1461
ag1462
ag1463
ag1464
ag1465
ag1466
ag1467
ag1468
ag1469
ag1470
ag1471
ag1472
ag1473
ag1474
ag1475
ag1476
ag1477
ag1478
ag1479
ag1480
ag1481
ag1482
ag1483
ag1484
ag1485
ag1486
atp1709
bsg143
Nstp1710
Rp1711
sg187
g4
(g5
(dp1712
g7
g8
(g9
(I0
tp1713
g11
tp1714
Rp1715
(I1
(L30L
tp1716
g18
I00
(lp1717
g1517
ag1518
ag1519
ag1520
ag1521
ag1522
ag1523
ag1524
ag1525
ag1526
ag1527
ag1528
ag1529
ag1530
ag1531
ag1532
ag1533
ag1534
ag1535
ag1536
ag1537
ag1538
ag1539
ag1540
ag1541
ag1542
ag1543
ag1544
ag1545
ag1546
atp1718
bsg143
Nstp1719
Rp1720
sg197
g4
(g5
(dp1721
g7
g8
(g9
(I0
tp1722
g11
tp1723
Rp1724
(I1
(L30L
tp1725
g18
I00
(lp1726
g1487
ag1488
ag1489
ag1490
ag1491
ag1492
ag1493
ag1494
ag1495
ag1496
ag1497
ag1498
ag1499
ag1500
ag1501
ag1502
ag1503
ag1504
ag1505
ag1506
ag1507
ag1508
ag1509
ag1510
ag1511
ag1512
ag1513
ag1514
ag1515
ag1516
atp1727
bsg143
Nstp1728
Rp1729
sg207
g4
(g5
(dp1730
g7
g8
(g9
(I0
tp1731
g11
tp1732
Rp1733
(I1
(L30L
tp1734
g18
I00
(lp1735
g1547
ag1548
ag1549
ag1550
ag1551
ag1552
ag1553
ag1554
ag1555
ag1556
ag1557
ag1558
ag1559
ag1560
ag1561
ag1562
ag1563
ag1564
ag1565
ag1566
ag1567
ag1568
ag1569
ag1570
ag1571
ag1572
ag1573
ag1574
ag1575
ag1576
atp1736
bsg143
Nstp1737
Rp1738
ssa(dp1739
I1
(dp1740
g3
g478
(g479
g480
Ntp1741
Rp1742
(dp1743
g484
g485
sg486
g478
(g487
g480
Ntp1744
Rp1745
((lp1746
g4
(g5
(dp1747
g7
g8
(g9
(I0
tp1748
g11
tp1749
Rp1750
(I1
(L96L
tp1751
g18
I00
(lp1752
g1291
ag1292
ag1293
ag1294
ag1295
ag1296
ag1297
ag1298
ag1299
ag1300
ag1301
ag1302
ag1303
ag1304
ag1305
ag1306
ag1307
ag1308
ag1309
ag1310
ag1311
ag1312
ag1313
ag1314
ag1315
ag1316
ag1317
ag1318
ag1319
ag1320
ag1321
ag1322
ag1323
ag1324
ag1325
ag1326
ag1327
ag1328
ag1329
ag1330
ag1331
ag1332
ag1333
ag1334
ag1335
ag1336
ag1337
ag1338
ag1339
ag1340
ag1341
ag1342
ag1343
ag1344
ag1345
ag1346
ag1347
ag1348
ag1349
ag1350
ag1351
ag1352
ag1353
ag1354
ag1355
ag1356
ag1357
ag1358
ag1359
ag1360
ag1361
ag1362
ag1363
ag1364
ag1365
ag1366
ag1367
ag1368
ag1369
ag1370
ag1371
ag1372
ag1373
ag1374
ag1375
ag1376
ag1377
ag1378
ag1379
ag1380
ag1381
ag1382
ag1383
ag1384
ag1385
ag1386
atp1753
bsg143
Nstp1754
Rp1755
a(lp1756
g8
(g9
(I0
tp1757
g11
tp1758
Rp1759
(I1
(L96L
tp1760
g507
I00
S'\x00\x00\x00\x00\x00\x00\x00\x00\x00\x00\x00\x00\x00\x00\x00\x00\x00\x00\x00\x00\x00\x00\x00\x00\x00\x00\x00\x00\x00\x00\x00\x00\x00\x00\x00\x00\x00\x00\x00\x00\x00\x00\x00\x00\x00\x00\x00\x00\x00\x00\x00\x00\x00\x00\x00\x00\x00\x00\x00\x00\x00\x00\x00\x00\x00\x00\x00\x00\x00\x00\x00\x00\x00\x00\x00\x00\x00\x00\x00\x00\x00\x00\x00\x00\x00\x00\x00\x00\x00\x00\x00\x00\x00\x00\x00\x00'
p1761
tp1762
ba(lp1763
g4
(g5
(dp1764
g7
g8
(g9
(I0
tp1765
g11
tp1766
Rp1767
(I1
(L96L
tp1768
g18
I00
(lp1769
g1291
ag1292
ag1293
ag1294
ag1295
ag1296
ag1297
ag1298
ag1299
ag1300
ag1301
ag1302
ag1303
ag1304
ag1305
ag1306
ag1307
ag1308
ag1309
ag1310
ag1311
ag1312
ag1313
ag1314
ag1315
ag1316
ag1317
ag1318
ag1319
ag1320
ag1321
ag1322
ag1323
ag1324
ag1325
ag1326
ag1327
ag1328
ag1329
ag1330
ag1331
ag1332
ag1333
ag1334
ag1335
ag1336
ag1337
ag1338
ag1339
ag1340
ag1341
ag1342
ag1343
ag1344
ag1345
ag1346
ag1347
ag1348
ag1349
ag1350
ag1351
ag1352
ag1353
ag1354
ag1355
ag1356
ag1357
ag1358
ag1359
ag1360
ag1361
ag1362
ag1363
ag1364
ag1365
ag1366
ag1367
ag1368
ag1369
ag1370
ag1371
ag1372
ag1373
ag1374
ag1375
ag1376
ag1377
ag1378
ag1379
ag1380
ag1381
ag1382
ag1383
ag1384
ag1385
ag1386
atp1770
bsg143
Nstp1771
Rp1772
a(dp1773
g523
(dp1774
g525
g1746
sg526
(lp1775
(dp1776
g529
g530
(I0
I96
I1
tp1777
Rp1778
sg533
g1759
sasstp1779
bsg535
g536
sg143
g537
sbsg147
g478
(g479
g480
Ntp1780
Rp1781
(dp1782
g484
g485
sg486
g478
(g487
g480
Ntp1783
Rp1784
((lp1785
g4
(g5
(dp1786
g7
g8
(g9
(I0
tp1787
g11
tp1788
Rp1789
(I1
(L96L
tp1790
g18
I00
(lp1791
g1396
ag1397
ag1398
ag1399
ag1400
ag1401
ag1402
ag1403
ag1404
ag1405
ag1406
ag1407
ag1408
ag1409
ag1410
ag1411
ag1412
ag1413
ag1414
ag1415
ag1416
ag1417
ag1418
ag1419
ag1315
ag1316
ag1317
ag1318
ag1319
ag1320
ag1321
ag1322
ag1323
ag1324
ag1325
ag1326
ag1327
ag1328
ag1329
ag1330
ag1331
ag1332
ag1333
ag1334
ag1335
ag1336
ag1337
ag1338
ag1339
ag1340
ag1341
ag1342
ag1343
ag1344
ag1345
ag1346
ag1347
ag1348
ag1349
ag1350
ag1351
ag1352
ag1353
ag1354
ag1355
ag1356
ag1357
ag1358
ag1359
ag1360
ag1361
ag1362
ag1363
ag1364
ag1365
ag1366
ag1367
ag1368
ag1369
ag1370
ag1371
ag1372
ag1373
ag1374
ag1375
ag1376
ag1377
ag1378
ag1379
ag1380
ag1381
ag1382
ag1383
ag1384
ag1385
ag1386
atp1792
bsg143
Nstp1793
Rp1794
a(lp1795
g8
(g9
(I0
tp1796
g11
tp1797
Rp1798
(I1
(L96L
tp1799
g507
I00
S'\x00\x00\x00\x00\x00\x00\x00\x00\x00\x00\x00\x00\x00\x00\x00\x00\x00\x00\x00\x00\x00\x00\x00\x00\x00\x00\x00\x00\x00\x00\x00\x00\x00\x00\x00\x00\x00\x00\x00\x00\x00\x00\x00\x00\x00\x00\x00\x00\x00\x00\x00\x00\x00\x00\x00\x00\x00\x00\x00\x00\x00\x00\x00\x00\x00\x00\x00\x00\x00\x00\x00\x00\x00\x00\x00\x00\x00\x00\x00\x00\x00\x00\x00\x00\x00\x00\x00\x00\x00\x00\x00\x00\x00\x00\x00\x00'
p1800
tp1801
ba(lp1802
g4
(g5
(dp1803
g7
g8
(g9
(I0
tp1804
g11
tp1805
Rp1806
(I1
(L96L
tp1807
g18
I00
(lp1808
g1396
ag1397
ag1398
ag1399
ag1400
ag1401
ag1402
ag1403
ag1404
ag1405
ag1406
ag1407
ag1408
ag1409
ag1410
ag1411
ag1412
ag1413
ag1414
ag1415
ag1416
ag1417
ag1418
ag1419
ag1315
ag1316
ag1317
ag1318
ag1319
ag1320
ag1321
ag1322
ag1323
ag1324
ag1325
ag1326
ag1327
ag1328
ag1329
ag1330
ag1331
ag1332
ag1333
ag1334
ag1335
ag1336
ag1337
ag1338
ag1339
ag1340
ag1341
ag1342
ag1343
ag1344
ag1345
ag1346
ag1347
ag1348
ag1349
ag1350
ag1351
ag1352
ag1353
ag1354
ag1355
ag1356
ag1357
ag1358
ag1359
ag1360
ag1361
ag1362
ag1363
ag1364
ag1365
ag1366
ag1367
ag1368
ag1369
ag1370
ag1371
ag1372
ag1373
ag1374
ag1375
ag1376
ag1377
ag1378
ag1379
ag1380
ag1381
ag1382
ag1383
ag1384
ag1385
ag1386
atp1809
bsg143
Nstp1810
Rp1811
a(dp1812
g523
(dp1813
g525
g1785
sg526
(lp1814
(dp1815
g529
g530
(I0
I96
I1
tp1816
Rp1817
sg533
g1798
sasstp1818
bsg535
g536
sg143
g537
sbsg187
g478
(g479
g480
Ntp1819
Rp1820
(dp1821
g484
g485
sg486
g478
(g487
g480
Ntp1822
Rp1823
((lp1824
g4
(g5
(dp1825
g7
g8
(g9
(I0
tp1826
g11
tp1827
Rp1828
(I1
(L96L
tp1829
g18
I00
(lp1830
g1291
ag1292
ag1293
ag1294
ag1295
ag1296
ag1297
ag1298
ag1299
ag1300
ag1301
ag1302
ag1303
ag1304
ag1305
ag1306
ag1307
ag1308
ag1309
ag1310
ag1311
ag1312
ag1313
ag1314
ag1396
ag1397
ag1398
ag1399
ag1400
ag1401
ag1402
ag1403
ag1404
ag1405
ag1406
ag1407
ag1408
ag1409
ag1410
ag1411
ag1412
ag1413
ag1414
ag1415
ag1416
ag1417
ag1418
ag1419
ag1315
ag1316
ag1317
ag1318
ag1319
ag1320
ag1321
ag1322
ag1323
ag1324
ag1325
ag1326
ag1327
ag1328
ag1329
ag1330
ag1331
ag1332
ag1333
ag1334
ag1335
ag1336
ag1337
ag1338
ag1363
ag1364
ag1365
ag1366
ag1367
ag1368
ag1369
ag1370
ag1371
ag1372
ag1373
ag1374
ag1375
ag1376
ag1377
ag1378
ag1379
ag1380
ag1381
ag1382
ag1383
ag1384
ag1385
ag1386
atp1831
bsg143
Nstp1832
Rp1833
a(lp1834
g8
(g9
(I0
tp1835
g11
tp1836
Rp1837
(I1
(L96L
tp1838
g507
I00
S'\x00\x00\x00\x00\x00\x00\x00\x00\x00\x00\x00\x00\x00\x00\x00\x00\x00\x00\x00\x00\x00\x00\x00\x00\x00\x00\x00\x00\x00\x00\x00\x00\x00\x00\x00\x00\x00\x00\x00\x00\x00\x00\x00\x00\x00\x00\x00\x00\x00\x00\x00\x00\x00\x00\x00\x00\x00\x00\x00\x00\x00\x00\x00\x00\x00\x00\x00\x00\x00\x00\x00\x00\x00\x00\x00\x00\x00\x00\x00\x00\x00\x00\x00\x00\x00\x00\x00\x00\x00\x00\x00\x00\x00\x00\x00\x00'
p1839
tp1840
ba(lp1841
g4
(g5
(dp1842
g7
g8
(g9
(I0
tp1843
g11
tp1844
Rp1845
(I1
(L96L
tp1846
g18
I00
(lp1847
g1291
ag1292
ag1293
ag1294
ag1295
ag1296
ag1297
ag1298
ag1299
ag1300
ag1301
ag1302
ag1303
ag1304
ag1305
ag1306
ag1307
ag1308
ag1309
ag1310
ag1311
ag1312
ag1313
ag1314
ag1396
ag1397
ag1398
ag1399
ag1400
ag1401
ag1402
ag1403
ag1404
ag1405
ag1406
ag1407
ag1408
ag1409
ag1410
ag1411
ag1412
ag1413
ag1414
ag1415
ag1416
ag1417
ag1418
ag1419
ag1315
ag1316
ag1317
ag1318
ag1319
ag1320
ag1321
ag1322
ag1323
ag1324
ag1325
ag1326
ag1327
ag1328
ag1329
ag1330
ag1331
ag1332
ag1333
ag1334
ag1335
ag1336
ag1337
ag1338
ag1363
ag1364
ag1365
ag1366
ag1367
ag1368
ag1369
ag1370
ag1371
ag1372
ag1373
ag1374
ag1375
ag1376
ag1377
ag1378
ag1379
ag1380
ag1381
ag1382
ag1383
ag1384
ag1385
ag1386
atp1848
bsg143
Nstp1849
Rp1850
a(dp1851
g523
(dp1852
g525
g1824
sg526
(lp1853
(dp1854
g529
g530
(I0
I96
I1
tp1855
Rp1856
sg533
g1837
sasstp1857
bsg535
g536
sg143
g537
sbsg197
g478
(g479
g480
Ntp1858
Rp1859
(dp1860
g484
g485
sg486
g478
(g487
g480
Ntp1861
Rp1862
((lp1863
g4
(g5
(dp1864
g7
g8
(g9
(I0
tp1865
g11
tp1866
Rp1867
(I1
(L96L
tp1868
g18
I00
(lp1869
g1291
ag1292
ag1293
ag1294
ag1295
ag1296
ag1297
ag1298
ag1299
ag1300
ag1301
ag1302
ag1303
ag1304
ag1305
ag1306
ag1307
ag1308
ag1309
ag1310
ag1311
ag1312
ag1313
ag1314
ag1396
ag1397
ag1398
ag1399
ag1400
ag1401
ag1402
ag1403
ag1404
ag1405
ag1406
ag1407
ag1408
ag1409
ag1410
ag1411
ag1412
ag1413
ag1414
ag1415
ag1416
ag1417
ag1418
ag1419
ag1339
ag1340
ag1341
ag1342
ag1343
ag1344
ag1345
ag1346
ag1347
ag1348
ag1349
ag1350
ag1351
ag1352
ag1353
ag1354
ag1355
ag1356
ag1357
ag1358
ag1359
ag1360
ag1361
ag1362
ag1363
ag1364
ag1365
ag1366
ag1367
ag1368
ag1369
ag1370
ag1371
ag1372
ag1373
ag1374
ag1375
ag1376
ag1377
ag1378
ag1379
ag1380
ag1381
ag1382
ag1383
ag1384
ag1385
ag1386
atp1870
bsg143
Nstp1871
Rp1872
a(lp1873
g8
(g9
(I0
tp1874
g11
tp1875
Rp1876
(I1
(L96L
tp1877
g507
I00
S'\x00\x00\x00\x00\x00\x00\x00\x00\x00\x00\x00\x00\x00\x00\x00\x00\x00\x00\x00\x00\x00\x00\x00\x00\x00\x00\x00\x00\x00\x00\x00\x00\x00\x00\x00\x00\x00\x00\x00\x00\x00\x00\x00\x00\x00\x00\x00\x00\x00\x00\x00\x00\x00\x00\x00\x00\x00\x00\x00\x00\x00\x00\x00\x00\x00\x00\x00\x00\x00\x00\x00\x00\x00\x00\x00\x00\x00\x00\x00\x00\x00\x00\x00\x00\x00\x00\x00\x00\x00\x00\x00\x00\x00\x00\x00\x00'
p1878
tp1879
ba(lp1880
g4
(g5
(dp1881
g7
g8
(g9
(I0
tp1882
g11
tp1883
Rp1884
(I1
(L96L
tp1885
g18
I00
(lp1886
g1291
ag1292
ag1293
ag1294
ag1295
ag1296
ag1297
ag1298
ag1299
ag1300
ag1301
ag1302
ag1303
ag1304
ag1305
ag1306
ag1307
ag1308
ag1309
ag1310
ag1311
ag1312
ag1313
ag1314
ag1396
ag1397
ag1398
ag1399
ag1400
ag1401
ag1402
ag1403
ag1404
ag1405
ag1406
ag1407
ag1408
ag1409
ag1410
ag1411
ag1412
ag1413
ag1414
ag1415
ag1416
ag1417
ag1418
ag1419
ag1339
ag1340
ag1341
ag1342
ag1343
ag1344
ag1345
ag1346
ag1347
ag1348
ag1349
ag1350
ag1351
ag1352
ag1353
ag1354
ag1355
ag1356
ag1357
ag1358
ag1359
ag1360
ag1361
ag1362
ag1363
ag1364
ag1365
ag1366
ag1367
ag1368
ag1369
ag1370
ag1371
ag1372
ag1373
ag1374
ag1375
ag1376
ag1377
ag1378
ag1379
ag1380
ag1381
ag1382
ag1383
ag1384
ag1385
ag1386
atp1887
bsg143
Nstp1888
Rp1889
a(dp1890
g523
(dp1891
g525
g1863
sg526
(lp1892
(dp1893
g529
g530
(I0
I96
I1
tp1894
Rp1895
sg533
g1876
sasstp1896
bsg535
g536
sg143
g537
sbsg207
g478
(g479
g480
Ntp1897
Rp1898
(dp1899
g484
g485
sg486
g478
(g487
g480
Ntp1900
Rp1901
((lp1902
g4
(g5
(dp1903
g7
g8
(g9
(I0
tp1904
g11
tp1905
Rp1906
(I1
(L96L
tp1907
g18
I00
(lp1908
g1291
ag1292
ag1293
ag1294
ag1295
ag1296
ag1297
ag1298
ag1299
ag1300
ag1301
ag1302
ag1303
ag1304
ag1305
ag1306
ag1307
ag1308
ag1309
ag1310
ag1311
ag1312
ag1313
ag1314
ag1396
ag1397
ag1398
ag1399
ag1400
ag1401
ag1402
ag1403
ag1404
ag1405
ag1406
ag1407
ag1408
ag1409
ag1410
ag1411
ag1412
ag1413
ag1414
ag1415
ag1416
ag1417
ag1418
ag1419
ag1315
ag1316
ag1317
ag1318
ag1319
ag1320
ag1321
ag1322
ag1323
ag1324
ag1325
ag1326
ag1327
ag1328
ag1329
ag1330
ag1331
ag1332
ag1333
ag1334
ag1335
ag1336
ag1337
ag1338
ag1339
ag1340
ag1341
ag1342
ag1343
ag1344
ag1345
ag1346
ag1347
ag1348
ag1349
ag1350
ag1351
ag1352
ag1353
ag1354
ag1355
ag1356
ag1357
ag1358
ag1359
ag1360
ag1361
ag1362
atp1909
bsg143
Nstp1910
Rp1911
a(lp1912
g8
(g9
(I0
tp1913
g11
tp1914
Rp1915
(I1
(L96L
tp1916
g507
I00
S'\x00\x00\x00\x00\x00\x00\x00\x00\x00\x00\x00\x00\x00\x00\x00\x00\x00\x00\x00\x00\x00\x00\x00\x00\x00\x00\x00\x00\x00\x00\x00\x00\x00\x00\x00\x00\x00\x00\x00\x00\x00\x00\x00\x00\x00\x00\x00\x00\x00\x00\x00\x00\x00\x00\x00\x00\x00\x00\x00\x00\x00\x00\x00\x00\x00\x00\x00\x00\x00\x00\x00\x00\x00\x00\x00\x00\x00\x00\x00\x00\x00\x00\x00\x00\x00\x00\x00\x00\x00\x00\x00\x00\x00\x00\x00\x00'
p1917
tp1918
ba(lp1919
g4
(g5
(dp1920
g7
g8
(g9
(I0
tp1921
g11
tp1922
Rp1923
(I1
(L96L
tp1924
g18
I00
(lp1925
g1291
ag1292
ag1293
ag1294
ag1295
ag1296
ag1297
ag1298
ag1299
ag1300
ag1301
ag1302
ag1303
ag1304
ag1305
ag1306
ag1307
ag1308
ag1309
ag1310
ag1311
ag1312
ag1313
ag1314
ag1396
ag1397
ag1398
ag1399
ag1400
ag1401
ag1402
ag1403
ag1404
ag1405
ag1406
ag1407
ag1408
ag1409
ag1410
ag1411
ag1412
ag1413
ag1414
ag1415
ag1416
ag1417
ag1418
ag1419
ag1315
ag1316
ag1317
ag1318
ag1319
ag1320
ag1321
ag1322
ag1323
ag1324
ag1325
ag1326
ag1327
ag1328
ag1329
ag1330
ag1331
ag1332
ag1333
ag1334
ag1335
ag1336
ag1337
ag1338
ag1339
ag1340
ag1341
ag1342
ag1343
ag1344
ag1345
ag1346
ag1347
ag1348
ag1349
ag1350
ag1351
ag1352
ag1353
ag1354
ag1355
ag1356
ag1357
ag1358
ag1359
ag1360
ag1361
ag1362
atp1926
bsg143
Nstp1927
Rp1928
a(dp1929
g523
(dp1930
g525
g1902
sg526
(lp1931
(dp1932
g529
g530
(I0
I96
I1
tp1933
Rp1934
sg533
g1915
sasstp1935
bsg535
g536
sg143
g537
sbssI2
(dp1936
g3
g478
(g479
g480
Ntp1937
Rp1938
(dp1939
g484
g485
sg486
g478
(g487
g480
Ntp1940
Rp1941
((lp1942
g4
(g5
(dp1943
g7
g8
(g9
(I0
tp1944
g11
tp1945
Rp1946
(I1
(L120L
tp1947
g18
I00
(lp1948
g1457
ag1458
ag1459
ag1460
ag1461
ag1462
ag1463
ag1464
ag1465
ag1466
ag1467
ag1468
ag1469
ag1470
ag1471
ag1472
ag1473
ag1474
ag1475
ag1476
ag1477
ag1478
ag1479
ag1480
ag1481
ag1482
ag1483
ag1484
ag1485
ag1486
ag1487
ag1488
ag1489
ag1490
ag1491
ag1492
ag1493
ag1494
ag1495
ag1496
ag1497
ag1498
ag1499
ag1500
ag1501
ag1502
ag1503
ag1504
ag1505
ag1506
ag1507
ag1508
ag1509
ag1510
ag1511
ag1512
ag1513
ag1514
ag1515
ag1516
ag1517
ag1518
ag1519
ag1520
ag1521
ag1522
ag1523
ag1524
ag1525
ag1526
ag1527
ag1528
ag1529
ag1530
ag1531
ag1532
ag1533
ag1534
ag1535
ag1536
ag1537
ag1538
ag1539
ag1540
ag1541
ag1542
ag1543
ag1544
ag1545
ag1546
ag1547
ag1548
ag1549
ag1550
ag1551
ag1552
ag1553
ag1554
ag1555
ag1556
ag1557
ag1558
ag1559
ag1560
ag1561
ag1562
ag1563
ag1564
ag1565
ag1566
ag1567
ag1568
ag1569
ag1570
ag1571
ag1572
ag1573
ag1574
ag1575
ag1576
atp1949
bsg143
Nstp1950
Rp1951
a(lp1952
g8
(g9
(I0
tp1953
g11
tp1954
Rp1955
(I1
(L120L
tp1956
g507
I00
S'\x00\x00\x00\x00\x00\x00\x00\x00\x00\x00\x00\x00\x00\x00\x00\x00\x00\x00\x00\x00\x00\x00\x00\x00\x00\x00\x00\x00\x00\x00\x00\x00\x00\x00\x00\x00\x00\x00\x00\x00\x00\x00\x00\x00\x00\x00\x00\x00\x00\x00\x00\x00\x00\x00\x00\x00\x00\x00\x00\x00\x00\x00\x00\x00\x00\x00\x00\x00\x00\x00\x00\x00\x00\x00\x00\x00\x00\x00\x00\x00\x00\x00\x00\x00\x00\x00\x00\x00\x00\x00\x00\x00\x00\x00\x00\x00\x00\x00\x00\x00\x00\x00\x00\x00\x00\x00\x00\x00\x00\x00\x00\x00\x00\x00\x00\x00\x00\x00\x00\x00'
p1957
tp1958
ba(lp1959
g4
(g5
(dp1960
g7
g8
(g9
(I0
tp1961
g11
tp1962
Rp1963
(I1
(L120L
tp1964
g18
I00
(lp1965
g1457
ag1458
ag1459
ag1460
ag1461
ag1462
ag1463
ag1464
ag1465
ag1466
ag1467
ag1468
ag1469
ag1470
ag1471
ag1472
ag1473
ag1474
ag1475
ag1476
ag1477
ag1478
ag1479
ag1480
ag1481
ag1482
ag1483
ag1484
ag1485
ag1486
ag1487
ag1488
ag1489
ag1490
ag1491
ag1492
ag1493
ag1494
ag1495
ag1496
ag1497
ag1498
ag1499
ag1500
ag1501
ag1502
ag1503
ag1504
ag1505
ag1506
ag1507
ag1508
ag1509
ag1510
ag1511
ag1512
ag1513
ag1514
ag1515
ag1516
ag1517
ag1518
ag1519
ag1520
ag1521
ag1522
ag1523
ag1524
ag1525
ag1526
ag1527
ag1528
ag1529
ag1530
ag1531
ag1532
ag1533
ag1534
ag1535
ag1536
ag1537
ag1538
ag1539
ag1540
ag1541
ag1542
ag1543
ag1544
ag1545
ag1546
ag1547
ag1548
ag1549
ag1550
ag1551
ag1552
ag1553
ag1554
ag1555
ag1556
ag1557
ag1558
ag1559
ag1560
ag1561
ag1562
ag1563
ag1564
ag1565
ag1566
ag1567
ag1568
ag1569
ag1570
ag1571
ag1572
ag1573
ag1574
ag1575
ag1576
atp1966
bsg143
Nstp1967
Rp1968
a(dp1969
g523
(dp1970
g525
g1942
sg526
(lp1971
(dp1972
g529
g530
(I0
I120
I1
tp1973
Rp1974
sg533
g1955
sasstp1975
bsg535
g536
sg143
g537
sbsg147
g478
(g479
g480
Ntp1976
Rp1977
(dp1978
g484
g485
sg486
g478
(g487
g480
Ntp1979
Rp1980
((lp1981
g4
(g5
(dp1982
g7
g8
(g9
(I0
tp1983
g11
tp1984
Rp1985
(I1
(L120L
tp1986
g18
I00
(lp1987
g1586
ag1587
ag1588
ag1589
ag1590
ag1591
ag1592
ag1593
ag1594
ag1595
ag1596
ag1597
ag1598
ag1599
ag1600
ag1601
ag1602
ag1603
ag1604
ag1605
ag1606
ag1607
ag1608
ag1609
ag1610
ag1611
ag1612
ag1613
ag1614
ag1615
ag1487
ag1488
ag1489
ag1490
ag1491
ag1492
ag1493
ag1494
ag1495
ag1496
ag1497
ag1498
ag1499
ag1500
ag1501
ag1502
ag1503
ag1504
ag1505
ag1506
ag1507
ag1508
ag1509
ag1510
ag1511
ag1512
ag1513
ag1514
ag1515
ag1516
ag1517
ag1518
ag1519
ag1520
ag1521
ag1522
ag1523
ag1524
ag1525
ag1526
ag1527
ag1528
ag1529
ag1530
ag1531
ag1532
ag1533
ag1534
ag1535
ag1536
ag1537
ag1538
ag1539
ag1540
ag1541
ag1542
ag1543
ag1544
ag1545
ag1546
ag1547
ag1548
ag1549
ag1550
ag1551
ag1552
ag1553
ag1554
ag1555
ag1556
ag1557
ag1558
ag1559
ag1560
ag1561
ag1562
ag1563
ag1564
ag1565
ag1566
ag1567
ag1568
ag1569
ag1570
ag1571
ag1572
ag1573
ag1574
ag1575
ag1576
atp1988
bsg143
Nstp1989
Rp1990
a(lp1991
g8
(g9
(I0
tp1992
g11
tp1993
Rp1994
(I1
(L120L
tp1995
g507
I00
S'\x00\x00\x00\x00\x00\x00\x00\x00\x00\x00\x00\x00\x00\x00\x00\x00\x00\x00\x00\x00\x00\x00\x00\x00\x00\x00\x00\x00\x00\x00\x00\x00\x00\x00\x00\x00\x00\x00\x00\x00\x00\x00\x00\x00\x00\x00\x00\x00\x00\x00\x00\x00\x00\x00\x00\x00\x00\x00\x00\x00\x00\x00\x00\x00\x00\x00\x00\x00\x00\x00\x00\x00\x00\x00\x00\x00\x00\x00\x00\x00\x00\x00\x00\x00\x00\x00\x00\x00\x00\x00\x00\x00\x00\x00\x00\x00\x00\x00\x00\x00\x00\x00\x00\x00\x00\x00\x00\x00\x00\x00\x00\x00\x00\x00\x00\x00\x00\x00\x00\x00'
p1996
tp1997
ba(lp1998
g4
(g5
(dp1999
g7
g8
(g9
(I0
tp2000
g11
tp2001
Rp2002
(I1
(L120L
tp2003
g18
I00
(lp2004
g1586
ag1587
ag1588
ag1589
ag1590
ag1591
ag1592
ag1593
ag1594
ag1595
ag1596
ag1597
ag1598
ag1599
ag1600
ag1601
ag1602
ag1603
ag1604
ag1605
ag1606
ag1607
ag1608
ag1609
ag1610
ag1611
ag1612
ag1613
ag1614
ag1615
ag1487
ag1488
ag1489
ag1490
ag1491
ag1492
ag1493
ag1494
ag1495
ag1496
ag1497
ag1498
ag1499
ag1500
ag1501
ag1502
ag1503
ag1504
ag1505
ag1506
ag1507
ag1508
ag1509
ag1510
ag1511
ag1512
ag1513
ag1514
ag1515
ag1516
ag1517
ag1518
ag1519
ag1520
ag1521
ag1522
ag1523
ag1524
ag1525
ag1526
ag1527
ag1528
ag1529
ag1530
ag1531
ag1532
ag1533
ag1534
ag1535
ag1536
ag1537
ag1538
ag1539
ag1540
ag1541
ag1542
ag1543
ag1544
ag1545
ag1546
ag1547
ag1548
ag1549
ag1550
ag1551
ag1552
ag1553
ag1554
ag1555
ag1556
ag1557
ag1558
ag1559
ag1560
ag1561
ag1562
ag1563
ag1564
ag1565
ag1566
ag1567
ag1568
ag1569
ag1570
ag1571
ag1572
ag1573
ag1574
ag1575
ag1576
atp2005
bsg143
Nstp2006
Rp2007
a(dp2008
g523
(dp2009
g525
g1981
sg526
(lp2010
(dp2011
g529
g530
(I0
I120
I1
tp2012
Rp2013
sg533
g1994
sasstp2014
bsg535
g536
sg143
g537
sbsg187
g478
(g479
g480
Ntp2015
Rp2016
(dp2017
g484
g485
sg486
g478
(g487
g480
Ntp2018
Rp2019
((lp2020
g4
(g5
(dp2021
g7
g8
(g9
(I0
tp2022
g11
tp2023
Rp2024
(I1
(L120L
tp2025
g18
I00
(lp2026
g1457
ag1458
ag1459
ag1460
ag1461
ag1462
ag1463
ag1464
ag1465
ag1466
ag1467
ag1468
ag1469
ag1470
ag1471
ag1472
ag1473
ag1474
ag1475
ag1476
ag1477
ag1478
ag1479
ag1480
ag1481
ag1482
ag1483
ag1484
ag1485
ag1486
ag1586
ag1587
ag1588
ag1589
ag1590
ag1591
ag1592
ag1593
ag1594
ag1595
ag1596
ag1597
ag1598
ag1599
ag1600
ag1601
ag1602
ag1603
ag1604
ag1605
ag1606
ag1607
ag1608
ag1609
ag1610
ag1611
ag1612
ag1613
ag1614
ag1615
ag1487
ag1488
ag1489
ag1490
ag1491
ag1492
ag1493
ag1494
ag1495
ag1496
ag1497
ag1498
ag1499
ag1500
ag1501
ag1502
ag1503
ag1504
ag1505
ag1506
ag1507
ag1508
ag1509
ag1510
ag1511
ag1512
ag1513
ag1514
ag1515
ag1516
ag1547
ag1548
ag1549
ag1550
ag1551
ag1552
ag1553
ag1554
ag1555
ag1556
ag1557
ag1558
ag1559
ag1560
ag1561
ag1562
ag1563
ag1564
ag1565
ag1566
ag1567
ag1568
ag1569
ag1570
ag1571
ag1572
ag1573
ag1574
ag1575
ag1576
atp2027
bsg143
Nstp2028
Rp2029
a(lp2030
g8
(g9
(I0
tp2031
g11
tp2032
Rp2033
(I1
(L120L
tp2034
g507
I00
S'\x00\x00\x00\x00\x00\x00\x00\x00\x00\x00\x00\x00\x00\x00\x00\x00\x00\x00\x00\x00\x00\x00\x00\x00\x00\x00\x00\x00\x00\x00\x00\x00\x00\x00\x00\x00\x00\x00\x00\x00\x00\x00\x00\x00\x00\x00\x00\x00\x00\x00\x00\x00\x00\x00\x00\x00\x00\x00\x00\x00\x00\x00\x00\x00\x00\x00\x00\x00\x00\x00\x00\x00\x00\x00\x00\x00\x00\x00\x00\x00\x00\x00\x00\x00\x00\x00\x00\x00\x00\x00\x00\x00\x00\x00\x00\x00\x00\x00\x00\x00\x00\x00\x00\x00\x00\x00\x00\x00\x00\x00\x00\x00\x00\x00\x00\x00\x00\x00\x00\x00'
p2035
tp2036
ba(lp2037
g4
(g5
(dp2038
g7
g8
(g9
(I0
tp2039
g11
tp2040
Rp2041
(I1
(L120L
tp2042
g18
I00
(lp2043
g1457
ag1458
ag1459
ag1460
ag1461
ag1462
ag1463
ag1464
ag1465
ag1466
ag1467
ag1468
ag1469
ag1470
ag1471
ag1472
ag1473
ag1474
ag1475
ag1476
ag1477
ag1478
ag1479
ag1480
ag1481
ag1482
ag1483
ag1484
ag1485
ag1486
ag1586
ag1587
ag1588
ag1589
ag1590
ag1591
ag1592
ag1593
ag1594
ag1595
ag1596
ag1597
ag1598
ag1599
ag1600
ag1601
ag1602
ag1603
ag1604
ag1605
ag1606
ag1607
ag1608
ag1609
ag1610
ag1611
ag1612
ag1613
ag1614
ag1615
ag1487
ag1488
ag1489
ag1490
ag1491
ag1492
ag1493
ag1494
ag1495
ag1496
ag1497
ag1498
ag1499
ag1500
ag1501
ag1502
ag1503
ag1504
ag1505
ag1506
ag1507
ag1508
ag1509
ag1510
ag1511
ag1512
ag1513
ag1514
ag1515
ag1516
ag1547
ag1548
ag1549
ag1550
ag1551
ag1552
ag1553
ag1554
ag1555
ag1556
ag1557
ag1558
ag1559
ag1560
ag1561
ag1562
ag1563
ag1564
ag1565
ag1566
ag1567
ag1568
ag1569
ag1570
ag1571
ag1572
ag1573
ag1574
ag1575
ag1576
atp2044
bsg143
Nstp2045
Rp2046
a(dp2047
g523
(dp2048
g525
g2020
sg526
(lp2049
(dp2050
g529
g530
(I0
I120
I1
tp2051
Rp2052
sg533
g2033
sasstp2053
bsg535
g536
sg143
g537
sbsg197
g478
(g479
g480
Ntp2054
Rp2055
(dp2056
g484
g485
sg486
g478
(g487
g480
Ntp2057
Rp2058
((lp2059
g4
(g5
(dp2060
g7
g8
(g9
(I0
tp2061
g11
tp2062
Rp2063
(I1
(L120L
tp2064
g18
I00
(lp2065
g1457
ag1458
ag1459
ag1460
ag1461
ag1462
ag1463
ag1464
ag1465
ag1466
ag1467
ag1468
ag1469
ag1470
ag1471
ag1472
ag1473
ag1474
ag1475
ag1476
ag1477
ag1478
ag1479
ag1480
ag1481
ag1482
ag1483
ag1484
ag1485
ag1486
ag1586
ag1587
ag1588
ag1589
ag1590
ag1591
ag1592
ag1593
ag1594
ag1595
ag1596
ag1597
ag1598
ag1599
ag1600
ag1601
ag1602
ag1603
ag1604
ag1605
ag1606
ag1607
ag1608
ag1609
ag1610
ag1611
ag1612
ag1613
ag1614
ag1615
ag1517
ag1518
ag1519
ag1520
ag1521
ag1522
ag1523
ag1524
ag1525
ag1526
ag1527
ag1528
ag1529
ag1530
ag1531
ag1532
ag1533
ag1534
ag1535
ag1536
ag1537
ag1538
ag1539
ag1540
ag1541
ag1542
ag1543
ag1544
ag1545
ag1546
ag1547
ag1548
ag1549
ag1550
ag1551
ag1552
ag1553
ag1554
ag1555
ag1556
ag1557
ag1558
ag1559
ag1560
ag1561
ag1562
ag1563
ag1564
ag1565
ag1566
ag1567
ag1568
ag1569
ag1570
ag1571
ag1572
ag1573
ag1574
ag1575
ag1576
atp2066
bsg143
Nstp2067
Rp2068
a(lp2069
g8
(g9
(I0
tp2070
g11
tp2071
Rp2072
(I1
(L120L
tp2073
g507
I00
S'\x00\x00\x00\x00\x00\x00\x00\x00\x00\x00\x00\x00\x00\x00\x00\x00\x00\x00\x00\x00\x00\x00\x00\x00\x00\x00\x00\x00\x00\x00\x00\x00\x00\x00\x00\x00\x00\x00\x00\x00\x00\x00\x00\x00\x00\x00\x00\x00\x00\x00\x00\x00\x00\x00\x00\x00\x00\x00\x00\x00\x00\x00\x00\x00\x00\x00\x00\x00\x00\x00\x00\x00\x00\x00\x00\x00\x00\x00\x00\x00\x00\x00\x00\x00\x00\x00\x00\x00\x00\x00\x00\x00\x00\x00\x00\x00\x00\x00\x00\x00\x00\x00\x00\x00\x00\x00\x00\x00\x00\x00\x00\x00\x00\x00\x00\x00\x00\x00\x00\x00'
p2074
tp2075
ba(lp2076
g4
(g5
(dp2077
g7
g8
(g9
(I0
tp2078
g11
tp2079
Rp2080
(I1
(L120L
tp2081
g18
I00
(lp2082
g1457
ag1458
ag1459
ag1460
ag1461
ag1462
ag1463
ag1464
ag1465
ag1466
ag1467
ag1468
ag1469
ag1470
ag1471
ag1472
ag1473
ag1474
ag1475
ag1476
ag1477
ag1478
ag1479
ag1480
ag1481
ag1482
ag1483
ag1484
ag1485
ag1486
ag1586
ag1587
ag1588
ag1589
ag1590
ag1591
ag1592
ag1593
ag1594
ag1595
ag1596
ag1597
ag1598
ag1599
ag1600
ag1601
ag1602
ag1603
ag1604
ag1605
ag1606
ag1607
ag1608
ag1609
ag1610
ag1611
ag1612
ag1613
ag1614
ag1615
ag1517
ag1518
ag1519
ag1520
ag1521
ag1522
ag1523
ag1524
ag1525
ag1526
ag1527
ag1528
ag1529
ag1530
ag1531
ag1532
ag1533
ag1534
ag1535
ag1536
ag1537
ag1538
ag1539
ag1540
ag1541
ag1542
ag1543
ag1544
ag1545
ag1546
ag1547
ag1548
ag1549
ag1550
ag1551
ag1552
ag1553
ag1554
ag1555
ag1556
ag1557
ag1558
ag1559
ag1560
ag1561
ag1562
ag1563
ag1564
ag1565
ag1566
ag1567
ag1568
ag1569
ag1570
ag1571
ag1572
ag1573
ag1574
ag1575
ag1576
atp2083
bsg143
Nstp2084
Rp2085
a(dp2086
g523
(dp2087
g525
g2059
sg526
(lp2088
(dp2089
g529
g530
(I0
I120
I1
tp2090
Rp2091
sg533
g2072
sasstp2092
bsg535
g536
sg143
g537
sbsg207
g478
(g479
g480
Ntp2093
Rp2094
(dp2095
g484
g485
sg486
g478
(g487
g480
Ntp2096
Rp2097
((lp2098
g4
(g5
(dp2099
g7
g8
(g9
(I0
tp2100
g11
tp2101
Rp2102
(I1
(L120L
tp2103
g18
I00
(lp2104
g1457
ag1458
ag1459
ag1460
ag1461
ag1462
ag1463
ag1464
ag1465
ag1466
ag1467
ag1468
ag1469
ag1470
ag1471
ag1472
ag1473
ag1474
ag1475
ag1476
ag1477
ag1478
ag1479
ag1480
ag1481
ag1482
ag1483
ag1484
ag1485
ag1486
ag1586
ag1587
ag1588
ag1589
ag1590
ag1591
ag1592
ag1593
ag1594
ag1595
ag1596
ag1597
ag1598
ag1599
ag1600
ag1601
ag1602
ag1603
ag1604
ag1605
ag1606
ag1607
ag1608
ag1609
ag1610
ag1611
ag1612
ag1613
ag1614
ag1615
ag1487
ag1488
ag1489
ag1490
ag1491
ag1492
ag1493
ag1494
ag1495
ag1496
ag1497
ag1498
ag1499
ag1500
ag1501
ag1502
ag1503
ag1504
ag1505
ag1506
ag1507
ag1508
ag1509
ag1510
ag1511
ag1512
ag1513
ag1514
ag1515
ag1516
ag1517
ag1518
ag1519
ag1520
ag1521
ag1522
ag1523
ag1524
ag1525
ag1526
ag1527
ag1528
ag1529
ag1530
ag1531
ag1532
ag1533
ag1534
ag1535
ag1536
ag1537
ag1538
ag1539
ag1540
ag1541
ag1542
ag1543
ag1544
ag1545
ag1546
atp2105
bsg143
Nstp2106
Rp2107
a(lp2108
g8
(g9
(I0
tp2109
g11
tp2110
Rp2111
(I1
(L120L
tp2112
g507
I00
S'\x00\x00\x00\x00\x00\x00\x00\x00\x00\x00\x00\x00\x00\x00\x00\x00\x00\x00\x00\x00\x00\x00\x00\x00\x00\x00\x00\x00\x00\x00\x00\x00\x00\x00\x00\x00\x00\x00\x00\x00\x00\x00\x00\x00\x00\x00\x00\x00\x00\x00\x00\x00\x00\x00\x00\x00\x00\x00\x00\x00\x00\x00\x00\x00\x00\x00\x00\x00\x00\x00\x00\x00\x00\x00\x00\x00\x00\x00\x00\x00\x00\x00\x00\x00\x00\x00\x00\x00\x00\x00\x00\x00\x00\x00\x00\x00\x00\x00\x00\x00\x00\x00\x00\x00\x00\x00\x00\x00\x00\x00\x00\x00\x00\x00\x00\x00\x00\x00\x00\x00'
p2113
tp2114
ba(lp2115
g4
(g5
(dp2116
g7
g8
(g9
(I0
tp2117
g11
tp2118
Rp2119
(I1
(L120L
tp2120
g18
I00
(lp2121
g1457
ag1458
ag1459
ag1460
ag1461
ag1462
ag1463
ag1464
ag1465
ag1466
ag1467
ag1468
ag1469
ag1470
ag1471
ag1472
ag1473
ag1474
ag1475
ag1476
ag1477
ag1478
ag1479
ag1480
ag1481
ag1482
ag1483
ag1484
ag1485
ag1486
ag1586
ag1587
ag1588
ag1589
ag1590
ag1591
ag1592
ag1593
ag1594
ag1595
ag1596
ag1597
ag1598
ag1599
ag1600
ag1601
ag1602
ag1603
ag1604
ag1605
ag1606
ag1607
ag1608
ag1609
ag1610
ag1611
ag1612
ag1613
ag1614
ag1615
ag1487
ag1488
ag1489
ag1490
ag1491
ag1492
ag1493
ag1494
ag1495
ag1496
ag1497
ag1498
ag1499
ag1500
ag1501
ag1502
ag1503
ag1504
ag1505
ag1506
ag1507
ag1508
ag1509
ag1510
ag1511
ag1512
ag1513
ag1514
ag1515
ag1516
ag1517
ag1518
ag1519
ag1520
ag1521
ag1522
ag1523
ag1524
ag1525
ag1526
ag1527
ag1528
ag1529
ag1530
ag1531
ag1532
ag1533
ag1534
ag1535
ag1536
ag1537
ag1538
ag1539
ag1540
ag1541
ag1542
ag1543
ag1544
ag1545
ag1546
atp2122
bsg143
Nstp2123
Rp2124
a(dp2125
g523
(dp2126
g525
g2098
sg526
(lp2127
(dp2128
g529
g530
(I0
I120
I1
tp2129
Rp2130
sg533
g2111
sasstp2131
bsg535
g536
sg143
g537
sbssa(dp2132
I1
(dp2133
g3
g478
(g479
g480
Ntp2134
Rp2135
(dp2136
g484
g485
sg486
g478
(g487
g480
Ntp2137
Rp2138
((lp2139
g4
(g5
(dp2140
g7
g8
(g9
(I0
tp2141
g11
tp2142
Rp2143
(I1
(L24L
tp2144
g18
I00
(lp2145
g1396
ag1397
ag1398
ag1399
ag1400
ag1401
ag1402
ag1403
ag1404
ag1405
ag1406
ag1407
ag1408
ag1409
ag1410
ag1411
ag1412
ag1413
ag1414
ag1415
ag1416
ag1417
ag1418
ag1419
atp2146
bsg143
Nstp2147
Rp2148
a(lp2149
g8
(g9
(I0
tp2150
g11
tp2151
Rp2152
(I1
(L24L
tp2153
g507
I00
S'\x00\x00\x00\x00\x00\x00\x00\x00\x00\x00\x00\x00\x00\x00\x00\x00\x00\x00\x00\x00\x00\x00\x00\x00'
p2154
tp2155
ba(lp2156
g4
(g5
(dp2157
g7
g8
(g9
(I0
tp2158
g11
tp2159
Rp2160
(I1
(L24L
tp2161
g18
I00
(lp2162
g1396
ag1397
ag1398
ag1399
ag1400
ag1401
ag1402
ag1403
ag1404
ag1405
ag1406
ag1407
ag1408
ag1409
ag1410
ag1411
ag1412
ag1413
ag1414
ag1415
ag1416
ag1417
ag1418
ag1419
atp2163
bsg143
Nstp2164
Rp2165
a(dp2166
g523
(dp2167
g525
g2139
sg526
(lp2168
(dp2169
g529
g530
(I0
I24
I1
tp2170
Rp2171
sg533
g2152
sasstp2172
bsg535
g536
sg143
g537
sbsg147
g478
(g479
g480
Ntp2173
Rp2174
(dp2175
g484
g485
sg486
g478
(g487
g480
Ntp2176
Rp2177
((lp2178
g4
(g5
(dp2179
g7
g8
(g9
(I0
tp2180
g11
tp2181
Rp2182
(I1
(L24L
tp2183
g18
I00
(lp2184
g1291
ag1292
ag1293
ag1294
ag1295
ag1296
ag1297
ag1298
ag1299
ag1300
ag1301
ag1302
ag1303
ag1304
ag1305
ag1306
ag1307
ag1308
ag1309
ag1310
ag1311
ag1312
ag1313
ag1314
atp2185
bsg143
Nstp2186
Rp2187
a(lp2188
g8
(g9
(I0
tp2189
g11
tp2190
Rp2191
(I1
(L24L
tp2192
g507
I00
S'\x00\x00\x00\x00\x00\x00\x00\x00\x00\x00\x00\x00\x00\x00\x00\x00\x00\x00\x00\x00\x00\x00\x00\x00'
p2193
tp2194
ba(lp2195
g4
(g5
(dp2196
g7
g8
(g9
(I0
tp2197
g11
tp2198
Rp2199
(I1
(L24L
tp2200
g18
I00
(lp2201
g1291
ag1292
ag1293
ag1294
ag1295
ag1296
ag1297
ag1298
ag1299
ag1300
ag1301
ag1302
ag1303
ag1304
ag1305
ag1306
ag1307
ag1308
ag1309
ag1310
ag1311
ag1312
ag1313
ag1314
atp2202
bsg143
Nstp2203
Rp2204
a(dp2205
g523
(dp2206
g525
g2178
sg526
(lp2207
(dp2208
g529
g530
(I0
I24
I1
tp2209
Rp2210
sg533
g2191
sasstp2211
bsg535
g536
sg143
g537
sbsg187
g478
(g479
g480
Ntp2212
Rp2213
(dp2214
g484
g485
sg486
g478
(g487
g480
Ntp2215
Rp2216
((lp2217
g4
(g5
(dp2218
g7
g8
(g9
(I0
tp2219
g11
tp2220
Rp2221
(I1
(L24L
tp2222
g18
I00
(lp2223
g1339
ag1340
ag1341
ag1342
ag1343
ag1344
ag1345
ag1346
ag1347
ag1348
ag1349
ag1350
ag1351
ag1352
ag1353
ag1354
ag1355
ag1356
ag1357
ag1358
ag1359
ag1360
ag1361
ag1362
atp2224
bsg143
Nstp2225
Rp2226
a(lp2227
g8
(g9
(I0
tp2228
g11
tp2229
Rp2230
(I1
(L24L
tp2231
g507
I00
S'\x00\x00\x00\x00\x00\x00\x00\x00\x00\x00\x00\x00\x00\x00\x00\x00\x00\x00\x00\x00\x00\x00\x00\x00'
p2232
tp2233
ba(lp2234
g4
(g5
(dp2235
g7
g8
(g9
(I0
tp2236
g11
tp2237
Rp2238
(I1
(L24L
tp2239
g18
I00
(lp2240
g1339
ag1340
ag1341
ag1342
ag1343
ag1344
ag1345
ag1346
ag1347
ag1348
ag1349
ag1350
ag1351
ag1352
ag1353
ag1354
ag1355
ag1356
ag1357
ag1358
ag1359
ag1360
ag1361
ag1362
atp2241
bsg143
Nstp2242
Rp2243
a(dp2244
g523
(dp2245
g525
g2217
sg526
(lp2246
(dp2247
g529
g530
(I0
I24
I1
tp2248
Rp2249
sg533
g2230
sasstp2250
bsg535
g536
sg143
g537
sbsg197
g478
(g479
g480
Ntp2251
Rp2252
(dp2253
g484
g485
sg486
g478
(g487
g480
Ntp2254
Rp2255
((lp2256
g4
(g5
(dp2257
g7
g8
(g9
(I0
tp2258
g11
tp2259
Rp2260
(I1
(L24L
tp2261
g18
I00
(lp2262
g1315
ag1316
ag1317
ag1318
ag1319
ag1320
ag1321
ag1322
ag1323
ag1324
ag1325
ag1326
ag1327
ag1328
ag1329
ag1330
ag1331
ag1332
ag1333
ag1334
ag1335
ag1336
ag1337
ag1338
atp2263
bsg143
Nstp2264
Rp2265
a(lp2266
g8
(g9
(I0
tp2267
g11
tp2268
Rp2269
(I1
(L24L
tp2270
g507
I00
S'\x00\x00\x00\x00\x00\x00\x00\x00\x00\x00\x00\x00\x00\x00\x00\x00\x00\x00\x00\x00\x00\x00\x00\x00'
p2271
tp2272
ba(lp2273
g4
(g5
(dp2274
g7
g8
(g9
(I0
tp2275
g11
tp2276
Rp2277
(I1
(L24L
tp2278
g18
I00
(lp2279
g1315
ag1316
ag1317
ag1318
ag1319
ag1320
ag1321
ag1322
ag1323
ag1324
ag1325
ag1326
ag1327
ag1328
ag1329
ag1330
ag1331
ag1332
ag1333
ag1334
ag1335
ag1336
ag1337
ag1338
atp2280
bsg143
Nstp2281
Rp2282
a(dp2283
g523
(dp2284
g525
g2256
sg526
(lp2285
(dp2286
g529
g530
(I0
I24
I1
tp2287
Rp2288
sg533
g2269
sasstp2289
bsg535
g536
sg143
g537
sbsg207
g478
(g479
g480
Ntp2290
Rp2291
(dp2292
g484
g485
sg486
g478
(g487
g480
Ntp2293
Rp2294
((lp2295
g4
(g5
(dp2296
g7
g8
(g9
(I0
tp2297
g11
tp2298
Rp2299
(I1
(L24L
tp2300
g18
I00
(lp2301
g1363
ag1364
ag1365
ag1366
ag1367
ag1368
ag1369
ag1370
ag1371
ag1372
ag1373
ag1374
ag1375
ag1376
ag1377
ag1378
ag1379
ag1380
ag1381
ag1382
ag1383
ag1384
ag1385
ag1386
atp2302
bsg143
Nstp2303
Rp2304
a(lp2305
g8
(g9
(I0
tp2306
g11
tp2307
Rp2308
(I1
(L24L
tp2309
g507
I00
S'\x00\x00\x00\x00\x00\x00\x00\x00\x00\x00\x00\x00\x00\x00\x00\x00\x00\x00\x00\x00\x00\x00\x00\x00'
p2310
tp2311
ba(lp2312
g4
(g5
(dp2313
g7
g8
(g9
(I0
tp2314
g11
tp2315
Rp2316
(I1
(L24L
tp2317
g18
I00
(lp2318
g1363
ag1364
ag1365
ag1366
ag1367
ag1368
ag1369
ag1370
ag1371
ag1372
ag1373
ag1374
ag1375
ag1376
ag1377
ag1378
ag1379
ag1380
ag1381
ag1382
ag1383
ag1384
ag1385
ag1386
atp2319
bsg143
Nstp2320
Rp2321
a(dp2322
g523
(dp2323
g525
g2295
sg526
(lp2324
(dp2325
g529
g530
(I0
I24
I1
tp2326
Rp2327
sg533
g2308
sasstp2328
bsg535
g536
sg143
g537
sbssI2
(dp2329
g3
g478
(g479
g480
Ntp2330
Rp2331
(dp2332
g484
g485
sg486
g478
(g487
g480
Ntp2333
Rp2334
((lp2335
g4
(g5
(dp2336
g7
g8
(g9
(I0
tp2337
g11
tp2338
Rp2339
(I1
(L30L
tp2340
g18
I00
(lp2341
g1586
ag1587
ag1588
ag1589
ag1590
ag1591
ag1592
ag1593
ag1594
ag1595
ag1596
ag1597
ag1598
ag1599
ag1600
ag1601
ag1602
ag1603
ag1604
ag1605
ag1606
ag1607
ag1608
ag1609
ag1610
ag1611
ag1612
ag1613
ag1614
ag1615
atp2342
bsg143
Nstp2343
Rp2344
a(lp2345
g8
(g9
(I0
tp2346
g11
tp2347
Rp2348
(I1
(L30L
tp2349
g507
I00
S'\x00\x00\x00\x00\x00\x00\x00\x00\x00\x00\x00\x00\x00\x00\x00\x00\x00\x00\x00\x00\x00\x00\x00\x00\x00\x00\x00\x00\x00\x00'
p2350
tp2351
ba(lp2352
g4
(g5
(dp2353
g7
g8
(g9
(I0
tp2354
g11
tp2355
Rp2356
(I1
(L30L
tp2357
g18
I00
(lp2358
g1586
ag1587
ag1588
ag1589
ag1590
ag1591
ag1592
ag1593
ag1594
ag1595
ag1596
ag1597
ag1598
ag1599
ag1600
ag1601
ag1602
ag1603
ag1604
ag1605
ag1606
ag1607
ag1608
ag1609
ag1610
ag1611
ag1612
ag1613
ag1614
ag1615
atp2359
bsg143
Nstp2360
Rp2361
a(dp2362
g523
(dp2363
g525
g2335
sg526
(lp2364
(dp2365
g529
g530
(I0
I30
I1
tp2366
Rp2367
sg533
g2348
sasstp2368
bsg535
g536
sg143
g537
sbsg147
g478
(g479
g480
Ntp2369
Rp2370
(dp2371
g484
g485
sg486
g478
(g487
g480
Ntp2372
Rp2373
((lp2374
g4
(g5
(dp2375
g7
g8
(g9
(I0
tp2376
g11
tp2377
Rp2378
(I1
(L30L
tp2379
g18
I00
(lp2380
g1457
ag1458
ag1459
ag1460
ag1461
ag1462
ag1463
ag1464
ag1465
ag1466
ag1467
ag1468
ag1469
ag1470
ag1471
ag1472
ag1473
ag1474
ag1475
ag1476
ag1477
ag1478
ag1479
ag1480
ag1481
ag1482
ag1483
ag1484
ag1485
ag1486
atp2381
bsg143
Nstp2382
Rp2383
a(lp2384
g8
(g9
(I0
tp2385
g11
tp2386
Rp2387
(I1
(L30L
tp2388
g507
I00
S'\x00\x00\x00\x00\x00\x00\x00\x00\x00\x00\x00\x00\x00\x00\x00\x00\x00\x00\x00\x00\x00\x00\x00\x00\x00\x00\x00\x00\x00\x00'
p2389
tp2390
ba(lp2391
g4
(g5
(dp2392
g7
g8
(g9
(I0
tp2393
g11
tp2394
Rp2395
(I1
(L30L
tp2396
g18
I00
(lp2397
g1457
ag1458
ag1459
ag1460
ag1461
ag1462
ag1463
ag1464
ag1465
ag1466
ag1467
ag1468
ag1469
ag1470
ag1471
ag1472
ag1473
ag1474
ag1475
ag1476
ag1477
ag1478
ag1479
ag1480
ag1481
ag1482
ag1483
ag1484
ag1485
ag1486
atp2398
bsg143
Nstp2399
Rp2400
a(dp2401
g523
(dp2402
g525
g2374
sg526
(lp2403
(dp2404
g529
g530
(I0
I30
I1
tp2405
Rp2406
sg533
g2387
sasstp2407
bsg535
g536
sg143
g537
sbsg187
g478
(g479
g480
Ntp2408
Rp2409
(dp2410
g484
g485
sg486
g478
(g487
g480
Ntp2411
Rp2412
((lp2413
g4
(g5
(dp2414
g7
g8
(g9
(I0
tp2415
g11
tp2416
Rp2417
(I1
(L30L
tp2418
g18
I00
(lp2419
g1517
ag1518
ag1519
ag1520
ag1521
ag1522
ag1523
ag1524
ag1525
ag1526
ag1527
ag1528
ag1529
ag1530
ag1531
ag1532
ag1533
ag1534
ag1535
ag1536
ag1537
ag1538
ag1539
ag1540
ag1541
ag1542
ag1543
ag1544
ag1545
ag1546
atp2420
bsg143
Nstp2421
Rp2422
a(lp2423
g8
(g9
(I0
tp2424
g11
tp2425
Rp2426
(I1
(L30L
tp2427
g507
I00
S'\x00\x00\x00\x00\x00\x00\x00\x00\x00\x00\x00\x00\x00\x00\x00\x00\x00\x00\x00\x00\x00\x00\x00\x00\x00\x00\x00\x00\x00\x00'
p2428
tp2429
ba(lp2430
g4
(g5
(dp2431
g7
g8
(g9
(I0
tp2432
g11
tp2433
Rp2434
(I1
(L30L
tp2435
g18
I00
(lp2436
g1517
ag1518
ag1519
ag1520
ag1521
ag1522
ag1523
ag1524
ag1525
ag1526
ag1527
ag1528
ag1529
ag1530
ag1531
ag1532
ag1533
ag1534
ag1535
ag1536
ag1537
ag1538
ag1539
ag1540
ag1541
ag1542
ag1543
ag1544
ag1545
ag1546
atp2437
bsg143
Nstp2438
Rp2439
a(dp2440
g523
(dp2441
g525
g2413
sg526
(lp2442
(dp2443
g529
g530
(I0
I30
I1
tp2444
Rp2445
sg533
g2426
sasstp2446
bsg535
g536
sg143
g537
sbsg197
g478
(g479
g480
Ntp2447
Rp2448
(dp2449
g484
g485
sg486
g478
(g487
g480
Ntp2450
Rp2451
((lp2452
g4
(g5
(dp2453
g7
g8
(g9
(I0
tp2454
g11
tp2455
Rp2456
(I1
(L30L
tp2457
g18
I00
(lp2458
g1487
ag1488
ag1489
ag1490
ag1491
ag1492
ag1493
ag1494
ag1495
ag1496
ag1497
ag1498
ag1499
ag1500
ag1501
ag1502
ag1503
ag1504
ag1505
ag1506
ag1507
ag1508
ag1509
ag1510
ag1511
ag1512
ag1513
ag1514
ag1515
ag1516
atp2459
bsg143
Nstp2460
Rp2461
a(lp2462
g8
(g9
(I0
tp2463
g11
tp2464
Rp2465
(I1
(L30L
tp2466
g507
I00
S'\x00\x00\x00\x00\x00\x00\x00\x00\x00\x00\x00\x00\x00\x00\x00\x00\x00\x00\x00\x00\x00\x00\x00\x00\x00\x00\x00\x00\x00\x00'
p2467
tp2468
ba(lp2469
g4
(g5
(dp2470
g7
g8
(g9
(I0
tp2471
g11
tp2472
Rp2473
(I1
(L30L
tp2474
g18
I00
(lp2475
g1487
ag1488
ag1489
ag1490
ag1491
ag1492
ag1493
ag1494
ag1495
ag1496
ag1497
ag1498
ag1499
ag1500
ag1501
ag1502
ag1503
ag1504
ag1505
ag1506
ag1507
ag1508
ag1509
ag1510
ag1511
ag1512
ag1513
ag1514
ag1515
ag1516
atp2476
bsg143
Nstp2477
Rp2478
a(dp2479
g523
(dp2480
g525
g2452
sg526
(lp2481
(dp2482
g529
g530
(I0
I30
I1
tp2483
Rp2484
sg533
g2465
sasstp2485
bsg535
g536
sg143
g537
sbsg207
g478
(g479
g480
Ntp2486
Rp2487
(dp2488
g484
g485
sg486
g478
(g487
g480
Ntp2489
Rp2490
((lp2491
g4
(g5
(dp2492
g7
g8
(g9
(I0
tp2493
g11
tp2494
Rp2495
(I1
(L30L
tp2496
g18
I00
(lp2497
g1547
ag1548
ag1549
ag1550
ag1551
ag1552
ag1553
ag1554
ag1555
ag1556
ag1557
ag1558
ag1559
ag1560
ag1561
ag1562
ag1563
ag1564
ag1565
ag1566
ag1567
ag1568
ag1569
ag1570
ag1571
ag1572
ag1573
ag1574
ag1575
ag1576
atp2498
bsg143
Nstp2499
Rp2500
a(lp2501
g8
(g9
(I0
tp2502
g11
tp2503
Rp2504
(I1
(L30L
tp2505
g507
I00
S'\x00\x00\x00\x00\x00\x00\x00\x00\x00\x00\x00\x00\x00\x00\x00\x00\x00\x00\x00\x00\x00\x00\x00\x00\x00\x00\x00\x00\x00\x00'
p2506
tp2507
ba(lp2508
g4
(g5
(dp2509
g7
g8
(g9
(I0
tp2510
g11
tp2511
Rp2512
(I1
(L30L
tp2513
g18
I00
(lp2514
g1547
ag1548
ag1549
ag1550
ag1551
ag1552
ag1553
ag1554
ag1555
ag1556
ag1557
ag1558
ag1559
ag1560
ag1561
ag1562
ag1563
ag1564
ag1565
ag1566
ag1567
ag1568
ag1569
ag1570
ag1571
ag1572
ag1573
ag1574
ag1575
ag1576
atp2515
bsg143
Nstp2516
Rp2517
a(dp2518
g523
(dp2519
g525
g2491
sg526
(lp2520
(dp2521
g529
g530
(I0
I30
I1
tp2522
Rp2523
sg533
g2504
sasstp2524
bsg535
g536
sg143
g537
sbssa.